(dp0
S'active'
p1
(dp2
S'x'
p3
(lp4
I0
aI10
aI20
aI30
aI40
aI50
aI60
aI70
aI80
aI90
aI100
aI110
aI120
aI130
aI140
aI150
aI160
aI170
aI180
aI190
aI200
aI210
aI220
aI230
aI240
aI250
aI260
aI270
aI280
aI290
aI300
aI310
aI320
aI330
aI340
aI350
aI360
aI370
aI380
aI390
aI400
aI410
aI420
aI430
aI440
aI450
aI460
aI470
aI480
aI490
aI500
aI510
aI520
aI530
aI540
aI550
aI560
aI570
aI580
aI590
aI600
aI610
aI620
aI630
aI640
aI650
aI660
aI670
aI680
aI690
aI700
aI710
aI720
aI730
aI740
aI750
aI760
aI770
aI780
aI790
aI800
aI810
aI820
aI830
aI840
aI850
aI860
aI870
aI880
aI890
aI900
aI910
aI920
aI930
aI940
aI950
aI960
aI970
aI980
aI990
aI1000
aI1010
aI1020
aI1030
aI1040
aI1050
aI1060
aI1070
aI1080
aI1090
aI1100
aI1110
aI1120
aI1130
aI1140
aI1150
aI1160
aI1170
aI1180
aI1190
aI1200
aI1210
aI1220
aI1230
aI1240
aI1250
aI1260
aI1270
aI1280
aI1290
aI1300
aI1310
aI1320
aI1330
aI1340
aI1350
aI1360
aI1370
aI1380
aI1390
aI1400
aI1410
aI1420
aI1430
aI1440
aI1450
aI1460
aI1470
aI1480
aI1490
aI1500
aI1510
aI1520
aI1530
aI1540
aI1550
aI1560
aI1570
aI1580
aI1590
aI1600
aI1610
aI1620
aI1630
aI1640
aI1650
aI1660
aI1670
aI1680
aI1690
aI1700
aI1710
aI1720
aI1730
aI1740
aI1750
aI1760
aI1770
aI1780
aI1790
aI1800
aI1810
aI1820
aI1830
aI1840
aI1850
aI1860
aI1870
aI1880
aI1890
aI1900
aI1910
aI1920
aI1930
aI1940
aI1950
aI1960
aI1970
aI1980
aI1990
aI2000
aI2010
aI2020
aI2030
aI2040
aI2050
aI2060
aI2070
aI2080
aI2090
aI2100
aI2110
aI2120
aI2130
aI2140
aI2150
aI2160
aI2170
aI2180
aI2190
aI2200
aI2210
aI2220
aI2230
aI2240
aI2250
aI2260
aI2270
aI2280
aI2290
aI2300
aI2310
aI2320
aI2330
aI2340
aI2350
aI2360
aI2370
aI2380
aI2390
aI2400
aI2410
aI2420
aI2430
aI2440
aI2450
aI2460
aI2470
aI2480
aI2490
aI2500
aI2510
aI2520
aI2530
aI2540
aI2550
aI2560
aI2570
aI2580
aI2590
aI2600
aI2610
aI2620
aI2630
aI2640
aI2650
aI2660
aI2670
aI2680
aI2690
aI2700
aI2710
aI2720
aI2730
aI2740
aI2750
aI2760
aI2770
aI2780
aI2790
aI2800
aI2810
aI2820
aI2830
aI2840
aI2850
aI2860
aI2870
aI2880
aI2890
aI2900
aI2910
aI2920
aI2930
aI2940
aI2950
aI2960
aI2970
aI2980
aI2990
aI3000
aI3010
aI3020
aI3030
aI3040
aI3050
aI3060
aI3070
aI3080
aI3090
aI3100
aI3110
asS'est'
p5
(lp6
I0
aI0
aI0
aI0
aI80
aI67
aI75
aI84
aI64
aI61
aI61
aI58
aI58
aI58
aI57
aI54
aI61
aI59
aI56
aI63
aI62
aI65
aI69
aI70
aI74
aI72
aI74
aI72
aI70
aI72
aI71
aI71
aI72
aI70
aI72
aI73
aI73
aI73
aI76
aI75
aI74
aI75
aI75
aI74
aI76
aI76
aI75
aI75
aI76
aI76
aI78
aI76
aI77
aI77
aI76
aI77
aI76
aI79
aI81
aI81
aI83
aI83
aI83
aI85
aI86
aI87
aI86
aI87
aI87
aI87
aI87
aI87
aI86
aI86
aI87
aI89
aI88
aI88
aI88
aI88
aI89
aI88
aI89
aI88
aI88
aI88
aI89
aI89
aI88
aI88
aI90
aI90
aI90
aI92
aI91
aI91
aI91
aI91
aI91
aI91
aI92
aI92
aI93
aI93
aI93
aI93
aI93
aI93
aI93
aI93
aI94
aI96
aI96
aI96
aI95
aI97
aI96
aI96
aI96
aI97
aI98
aI98
aI98
aI98
aI98
aI99
aI98
aI99
aI99
aI99
aI99
aI99
aI99
aI99
aI99
aI100
aI100
aI100
aI101
aI102
aI102
aI102
aI102
aI102
aI102
aI103
aI103
aI104
aI104
aI105
aI107
aI106
aI106
aI106
aI107
aI107
aI108
aI108
aI108
aI109
aI109
aI109
aI109
aI109
aI109
aI109
aI109
aI109
aI109
aI109
aI109
aI109
aI109
aI109
aI110
aI110
aI110
aI110
aI110
aI110
aI110
aI110
aI110
aI110
aI111
aI111
aI111
aI111
aI111
aI112
aI112
aI112
aI112
aI112
aI112
aI112
aI112
aI112
aI112
aI112
aI112
aI112
aI112
aI112
aI112
aI113
aI114
aI114
aI114
aI114
aI114
aI115
aI115
aI115
aI115
aI115
aI116
aI116
aI117
aI117
aI117
aI117
aI117
aI117
aI117
aI117
aI117
aI117
aI117
aI117
aI117
aI117
aI117
aI117
aI117
aI117
aI117
aI117
aI118
aI118
aI118
aI118
aI119
aI119
aI120
aI120
aI120
aI120
aI120
aI120
aI120
aI120
aI120
aI121
aI121
aI121
aI121
aI121
aI122
aI122
aI122
aI125
aI125
aI125
aI125
aI125
aI125
aI125
aI124
aI124
aI124
aI124
aI124
aI125
aI125
aI125
aI125
aI125
aI125
aI125
aI125
aI125
aI125
aI125
aI126
aI126
aI127
aI127
aI127
aI126
aI126
aI126
aI125
aI126
aI126
aI126
aI127
aI127
aI128
aI128
aI128
aI128
aI128
aI128
aI128
aI129
aI129
aI128
aI129
aI129
aI129
aI130
asS'pos'
p7
(lp8
I0
aI0
aI0
aI2
aI6
aI15
aI24
aI32
aI32
aI33
aI34
aI34
aI35
aI36
aI36
aI39
aI40
aI40
aI45
aI46
aI50
aI53
aI56
aI58
aI59
aI61
aI62
aI62
aI63
aI64
aI64
aI64
aI64
aI64
aI66
aI66
aI67
aI68
aI68
aI68
aI69
aI70
aI70
aI70
aI70
aI71
aI71
aI72
aI72
aI72
aI72
aI73
aI73
aI73
aI73
aI73
aI75
aI77
aI77
aI79
aI79
aI80
aI81
aI82
aI83
aI83
aI84
aI84
aI84
aI84
aI84
aI84
aI84
aI85
aI86
aI86
aI86
aI86
aI86
aI87
aI87
aI87
aI87
aI87
aI87
aI87
aI87
aI87
aI87
aI89
aI89
aI89
aI90
aI90
aI90
aI90
aI90
aI90
aI90
aI91
aI91
aI92
aI92
aI92
aI92
aI92
aI92
aI92
aI92
aI93
aI95
aI95
aI95
aI95
aI96
aI96
aI96
aI96
aI97
aI98
aI98
aI98
aI98
aI98
aI98
aI98
aI99
aI99
aI99
aI99
aI99
aI99
aI99
aI99
aI100
aI100
aI100
aI101
aI102
aI102
aI102
aI102
aI102
aI102
aI103
aI103
aI104
aI104
aI105
aI106
aI106
aI106
aI106
aI107
aI107
aI108
aI108
aI108
aI109
aI109
aI109
aI109
aI109
aI109
aI109
aI109
aI109
aI109
aI109
aI109
aI109
aI109
aI109
aI110
aI110
aI110
aI110
aI110
aI110
aI110
aI110
aI110
aI110
aI111
aI111
aI111
aI111
aI111
aI112
aI112
aI112
aI112
aI112
aI112
aI112
aI112
aI112
aI112
aI112
aI112
aI112
aI112
aI112
aI112
aI113
aI114
aI114
aI114
aI114
aI114
aI115
aI115
aI115
aI115
aI115
aI116
aI116
aI117
aI117
aI117
aI117
aI117
aI117
aI117
aI117
aI117
aI117
aI117
aI117
aI117
aI117
aI117
aI117
aI117
aI117
aI117
aI117
aI118
aI118
aI118
aI118
aI119
aI119
aI120
aI120
aI120
aI120
aI120
aI120
aI120
aI120
aI120
aI121
aI121
aI121
aI121
aI121
aI122
aI122
aI122
aI124
aI124
aI124
aI124
aI124
aI124
aI124
aI124
aI124
aI124
aI124
aI124
aI125
aI125
aI125
aI125
aI125
aI125
aI125
aI125
aI125
aI125
aI125
aI125
aI125
aI125
aI125
aI125
aI125
aI125
aI125
aI125
aI125
aI125
aI125
aI126
aI126
aI127
aI127
aI127
aI127
aI127
aI127
aI127
aI128
aI128
aI128
aI129
aI129
aI129
aI130
aI131
assS'supervised'
p9
(dp10
g3
(lp11
I0
aI10
aI20
aI30
aI40
aI50
aI60
aI70
aI80
aI90
aI100
aI110
aI120
aI130
aI140
aI150
aI160
aI170
aI180
aI190
aI200
aI210
aI220
aI230
aI240
aI250
aI260
aI270
aI280
aI290
aI300
aI310
aI320
aI330
aI340
aI350
aI360
aI370
aI380
aI390
aI400
aI410
aI420
aI430
aI440
aI450
aI460
aI470
aI480
aI490
aI500
aI510
aI520
aI530
aI540
aI550
aI560
aI570
aI580
aI590
aI600
aI610
aI620
aI630
aI640
aI650
aI660
aI670
aI680
aI690
aI700
aI710
aI720
aI730
aI740
aI750
aI760
aI770
aI780
aI790
aI800
aI810
aI820
aI830
aI840
aI850
aI860
aI870
aI880
aI890
aI900
aI910
aI920
aI930
aI940
aI950
aI960
aI970
aI980
aI990
aI1000
aI1010
aI1020
aI1030
aI1040
aI1050
aI1060
aI1070
aI1080
aI1090
aI1100
aI1110
aI1120
aI1130
aI1140
aI1150
aI1160
aI1170
aI1180
aI1190
aI1200
aI1210
aI1220
aI1230
aI1240
aI1250
aI1260
aI1270
aI1280
aI1290
aI1300
aI1310
aI1320
aI1330
aI1340
aI1350
aI1360
aI1370
aI1380
aI1390
aI1400
aI1410
aI1420
aI1430
aI1440
aI1450
aI1460
aI1470
aI1480
aI1490
aI1500
aI1510
aI1520
aI1530
aI1540
aI1550
aI1560
aI1570
aI1580
aI1590
aI1600
aI1610
aI1620
aI1630
aI1640
aI1650
aI1660
aI1670
aI1680
aI1690
aI1700
aI1710
aI1720
aI1730
aI1740
aI1750
aI1760
aI1770
aI1780
aI1790
aI1800
aI1810
aI1820
aI1830
aI1840
aI1850
aI1860
aI1870
aI1880
aI1890
aI1900
aI1910
aI1920
aI1930
aI1940
aI1950
aI1960
aI1970
aI1980
aI1990
aI2000
aI2010
aI2020
aI2030
aI2040
aI2050
aI2060
aI2070
aI2080
aI2090
aI2100
aI2110
aI2120
aI2130
aI2140
aI2150
aI2160
aI2170
aI2180
aI2190
aI2200
aI2210
aI2220
aI2230
aI2240
aI2250
aI2260
aI2270
aI2280
aI2290
aI2300
aI2310
aI2320
aI2330
aI2340
aI2350
aI2360
aI2370
aI2380
aI2390
aI2400
aI2410
aI2420
aI2430
aI2440
aI2450
aI2460
aI2470
aI2480
aI2490
aI2500
aI2510
aI2520
aI2530
aI2540
aI2550
aI2560
aI2570
aI2580
aI2590
aI2600
aI2610
aI2620
aI2630
aI2640
aI2650
aI2660
aI2670
aI2680
aI2690
aI2700
aI2710
aI2720
aI2730
aI2740
aI2750
aI2760
aI2770
aI2780
aI2790
aI2800
aI2810
aI2820
aI2830
aI2840
aI2850
aI2860
aI2870
aI2880
aI2890
aI2900
aI2910
aI2920
aI2930
aI2940
aI2950
aI2960
aI2970
aI2980
aI2990
aI3000
aI3010
aI3020
aI3030
aI3040
aI3050
aI3060
aI3070
aI3080
aI3090
aI3100
aI3110
aI3120
aI3130
aI3140
aI3150
aI3160
aI3170
aI3180
aI3190
aI3200
aI3210
aI3220
aI3230
aI3240
aI3250
aI3260
aI3270
aI3280
aI3290
aI3300
aI3310
aI3320
aI3330
aI3340
aI3350
aI3360
aI3370
aI3380
aI3390
aI3400
aI3410
aI3420
aI3430
aI3440
aI3450
aI3460
aI3470
aI3480
aI3490
aI3500
aI3510
aI3520
aI3530
aI3540
aI3550
aI3560
aI3570
aI3580
aI3590
aI3600
aI3610
aI3620
aI3630
aI3640
aI3650
aI3660
aI3670
aI3680
aI3690
aI3700
aI3710
aI3720
aI3730
aI3740
aI3750
aI3760
aI3770
aI3780
aI3790
aI3800
aI3810
aI3820
aI3830
aI3840
aI3850
aI3860
aI3870
aI3880
aI3890
aI3900
aI3910
aI3920
aI3930
aI3940
aI3950
aI3960
aI3970
aI3980
aI3990
aI4000
aI4010
aI4020
aI4030
aI4040
aI4050
aI4060
aI4070
aI4080
aI4090
aI4098
asg5
(lp12
I120
aI120
aI119
aI117
aI115
aI113
aI111
aI109
aI106
aI104
aI101
aI98
aI96
aI94
aI91
aI94
aI98
aI97
aI96
aI94
aI93
aI96
aI94
aI98
aI101
aI104
aI105
aI108
aI112
aI119
aI119
aI119
aI120
aI122
aI122
aI122
aI122
aI121
aI121
aI121
aI121
aI121
aI121
aI121
aI121
aI121
aI121
aI120
aI120
aI120
aI120
aI120
aI120
aI120
aI120
aI119
aI119
aI119
aI119
aI119
aI119
aI119
aI119
aI119
aI118
aI118
aI118
aI118
aI118
aI118
aI118
aI118
aI118
aI118
aI117
aI117
aI117
aI117
aI117
aI117
aI117
aI117
aI117
aI117
aI117
aI116
aI116
aI116
aI116
aI116
aI116
aI116
aI116
aI115
aI115
aI115
aI115
aI115
aI115
aI115
aI115
aI114
aI114
aI114
aI114
aI114
aI114
aI114
aI114
aI113
aI113
aI113
aI113
aI113
aI113
aI113
aI113
aI112
aI112
aI112
aI112
aI112
aI112
aI112
aI112
aI112
aI112
aI112
aI111
aI111
aI111
aI111
aI111
aI111
aI111
aI111
aI111
aI111
aI110
aI110
aI110
aI110
aI110
aI110
aI110
aI110
aI110
aI109
aI109
aI109
aI109
aI109
aI109
aI109
aI109
aI109
aI109
aI109
aI109
aI109
aI108
aI108
aI108
aI108
aI108
aI108
aI108
aI108
aI108
aI108
aI107
aI107
aI107
aI107
aI107
aI107
aI107
aI107
aI107
aI107
aI107
aI107
aI107
aI106
aI106
aI106
aI106
aI106
aI106
aI106
aI106
aI106
aI106
aI106
aI106
aI106
aI106
aI105
aI105
aI105
aI105
aI105
aI105
aI105
aI105
aI105
aI105
aI105
aI104
aI104
aI104
aI104
aI104
aI104
aI104
aI104
aI103
aI103
aI103
aI103
aI103
aI103
aI103
aI103
aI103
aI103
aI103
aI103
aI102
aI102
aI102
aI102
aI102
aI102
aI102
aI102
aI102
aI101
aI101
aI101
aI101
aI101
aI101
aI101
aI101
aI101
aI101
aI101
aI100
aI100
aI100
aI100
aI100
aI100
aI100
aI100
aI100
aI100
aI100
aI100
aI100
aI99
aI99
aI99
aI99
aI99
aI99
aI99
aI99
aI99
aI99
aI99
aI99
aI99
aI99
aI98
aI98
aI98
aI98
aI98
aI98
aI98
aI98
aI98
aI98
aI98
aI98
aI98
aI97
aI97
aI97
aI97
aI97
aI97
aI97
aI97
aI97
aI97
aI97
aI97
aI97
aI96
aI96
aI96
aI96
aI96
aI96
aI96
aI96
aI96
aI96
aI95
aI95
aI95
aI95
aI95
aI95
aI95
aI95
aI95
aI95
aI95
aI95
aI95
aI94
aI94
aI94
aI94
aI94
aI94
aI94
aI94
aI94
aI94
aI94
aI94
aI93
aI93
aI93
aI93
aI93
aI93
aI93
aI93
aI93
aI93
aI93
aI93
aI93
aI93
aI92
aI92
aI92
aI92
aI92
aI92
aI92
aI92
aI92
aI92
aI92
aI92
aI91
aI91
aI91
aI91
aI91
aI91
aI91
aI91
aI91
aI91
aI91
aI91
aI91
aI90
aI90
aI90
aI90
aI90
aI90
aI90
aI90
aI90
aI90
aI89
aI89
aI89
aI89
aI89
aI89
aI89
aI89
aI89
aI89
aI88
aI88
aI88
aI91
aI99
aI101
aI104
aI107
aI109
aI110
aI113
aI114
aI117
aI123
aI130
aI130
asg7
(lp13
I0
aI1
aI1
aI1
aI1
aI1
aI1
aI1
aI1
aI1
aI1
aI1
aI1
aI1
aI7
aI14
aI16
aI17
aI17
aI19
aI25
aI26
aI32
aI39
aI44
aI49
aI56
aI63
aI72
aI75
aI78
aI82
aI87
aI87
aI87
aI87
aI87
aI87
aI87
aI87
aI87
aI87
aI87
aI87
aI87
aI87
aI87
aI87
aI87
aI87
aI87
aI87
aI87
aI87
aI87
aI87
aI87
aI87
aI87
aI87
aI87
aI87
aI87
aI87
aI87
aI87
aI87
aI87
aI87
aI87
aI87
aI87
aI87
aI87
aI87
aI87
aI87
aI87
aI87
aI87
aI87
aI87
aI87
aI87
aI87
aI87
aI87
aI87
aI87
aI87
aI87
aI87
aI87
aI87
aI87
aI87
aI87
aI87
aI87
aI87
aI87
aI87
aI87
aI87
aI87
aI87
aI87
aI87
aI87
aI87
aI87
aI87
aI87
aI87
aI87
aI87
aI87
aI87
aI87
aI87
aI87
aI87
aI87
aI87
aI87
aI87
aI87
aI87
aI87
aI87
aI87
aI87
aI87
aI87
aI87
aI87
aI87
aI87
aI87
aI87
aI87
aI87
aI87
aI87
aI87
aI87
aI87
aI87
aI87
aI87
aI87
aI87
aI87
aI87
aI87
aI87
aI87
aI87
aI87
aI87
aI87
aI87
aI87
aI87
aI87
aI87
aI87
aI87
aI87
aI87
aI87
aI87
aI87
aI87
aI87
aI87
aI87
aI87
aI87
aI87
aI87
aI87
aI87
aI87
aI87
aI87
aI87
aI87
aI87
aI87
aI87
aI87
aI87
aI87
aI87
aI87
aI87
aI87
aI87
aI87
aI87
aI87
aI87
aI87
aI87
aI87
aI87
aI87
aI87
aI87
aI87
aI87
aI87
aI87
aI87
aI87
aI87
aI87
aI87
aI87
aI87
aI87
aI87
aI87
aI87
aI87
aI87
aI87
aI87
aI87
aI87
aI87
aI87
aI87
aI87
aI87
aI87
aI87
aI87
aI87
aI87
aI87
aI87
aI87
aI87
aI87
aI87
aI87
aI87
aI87
aI87
aI87
aI87
aI87
aI87
aI87
aI87
aI87
aI87
aI87
aI87
aI87
aI87
aI87
aI87
aI87
aI87
aI87
aI87
aI87
aI87
aI87
aI87
aI87
aI87
aI87
aI87
aI87
aI87
aI87
aI87
aI87
aI87
aI87
aI87
aI87
aI87
aI87
aI87
aI87
aI87
aI87
aI87
aI87
aI87
aI87
aI87
aI87
aI87
aI87
aI87
aI87
aI87
aI87
aI87
aI87
aI87
aI87
aI87
aI87
aI87
aI87
aI87
aI87
aI87
aI87
aI87
aI87
aI87
aI87
aI87
aI87
aI87
aI87
aI87
aI87
aI87
aI87
aI87
aI87
aI87
aI87
aI87
aI87
aI87
aI87
aI87
aI87
aI87
aI87
aI87
aI87
aI87
aI87
aI87
aI87
aI87
aI87
aI87
aI87
aI87
aI87
aI87
aI87
aI87
aI87
aI87
aI87
aI87
aI87
aI87
aI87
aI87
aI87
aI87
aI87
aI87
aI87
aI87
aI87
aI87
aI87
aI87
aI87
aI87
aI87
aI87
aI87
aI87
aI87
aI87
aI87
aI87
aI87
aI87
aI87
aI87
aI87
aI87
aI87
aI87
aI87
aI87
aI87
aI87
aI87
aI87
aI90
aI98
aI100
aI103
aI106
aI108
aI110
aI113
aI114
aI117
aI123
aI130
aI130
aI131
assS'true'
p14
(lp15
I131
aI4098
as.