(dp0
S'active'
p1
(dp2
S'x'
p3
(lp4
I0
aI10
aI20
aI30
aI40
aI50
aI60
aI70
aI80
aI90
aI100
aI110
aI120
aI130
aI140
aI150
aI160
aI170
aI180
aI190
aI200
aI210
aI220
aI230
aI240
aI250
aI260
aI270
aI280
aI290
aI300
aI310
aI320
aI330
aI340
aI350
aI360
aI370
aI380
aI390
aI400
aI410
aI420
aI430
aI440
aI450
aI460
aI470
aI480
aI490
aI500
aI510
aI520
aI530
aI540
aI550
aI560
aI570
aI580
aI590
aI600
aI610
aI620
aI630
aI640
aI650
aI660
aI670
aI680
aI690
aI700
aI710
aI720
aI730
aI740
aI750
aI760
aI770
aI780
aI790
aI800
aI810
aI820
aI830
aI840
aI850
aI860
aI870
aI880
aI890
aI900
aI910
aI920
aI930
aI940
aI950
aI960
aI970
aI980
aI990
aI1000
aI1010
aI1020
aI1030
aI1040
aI1050
aI1060
aI1070
aI1080
aI1090
aI1100
aI1110
aI1120
aI1130
aI1140
aI1150
aI1160
aI1170
aI1180
aI1190
aI1200
aI1210
aI1220
aI1230
aI1240
aI1250
aI1260
aI1270
aI1280
aI1290
aI1300
aI1310
aI1320
aI1330
aI1340
aI1350
aI1360
aI1370
aI1380
aI1390
aI1400
aI1410
aI1420
aI1430
aI1440
aI1450
aI1460
aI1470
aI1480
aI1490
aI1500
aI1510
aI1520
aI1530
aI1540
aI1550
aI1560
aI1570
aI1580
aI1590
aI1600
aI1610
aI1620
aI1630
aI1640
aI1650
aI1660
aI1670
aI1680
aI1690
aI1700
aI1710
aI1720
aI1730
aI1740
aI1750
aI1760
aI1770
aI1780
aI1790
aI1800
aI1810
aI1820
aI1830
aI1840
aI1850
aI1860
aI1870
aI1880
aI1890
aI1900
aI1910
aI1920
aI1930
aI1940
aI1950
aI1960
aI1970
aI1980
aI1990
aI2000
aI2010
aI2020
aI2030
aI2040
aI2050
aI2060
aI2070
aI2080
aI2090
aI2100
aI2110
aI2120
aI2130
aI2140
aI2150
aI2160
aI2170
aI2180
aI2190
aI2200
aI2210
aI2220
aI2230
aI2240
aI2250
aI2260
aI2270
aI2280
aI2290
aI2300
aI2310
aI2320
aI2330
aI2340
aI2350
aI2360
aI2370
aI2380
aI2390
aI2400
aI2410
aI2420
aI2430
aI2440
aI2450
aI2460
aI2470
aI2480
aI2490
aI2500
aI2510
aI2520
aI2530
aI2540
aI2550
aI2560
aI2570
aI2580
aI2590
aI2600
aI2610
aI2620
aI2630
aI2640
aI2650
aI2660
aI2670
aI2680
aI2690
aI2700
aI2710
aI2720
aI2730
aI2740
aI2750
aI2760
aI2770
aI2780
aI2790
aI2800
aI2810
aI2820
aI2830
aI2840
aI2850
aI2860
aI2870
aI2880
aI2890
aI2900
aI2910
aI2920
aI2930
aI2940
aI2950
aI2960
aI2970
aI2980
aI2990
aI3000
aI3010
aI3020
aI3030
aI3040
aI3050
aI3060
aI3070
aI3080
aI3090
aI3100
aI3110
aI3120
aI3130
aI3140
aI3150
aI3160
aI3170
aI3180
aI3190
aI3200
aI3210
aI3220
aI3230
aI3240
aI3250
aI3260
aI3270
aI3280
aI3290
aI3300
aI3310
aI3320
aI3330
aI3340
aI3350
aI3360
aI3370
aI3380
aI3390
aI3400
aI3410
aI3420
aI3430
aI3440
aI3450
aI3460
aI3470
aI3480
aI3490
aI3500
aI3510
aI3520
aI3530
aI3540
aI3550
aI3560
aI3570
aI3580
aI3590
aI3600
aI3610
aI3620
aI3630
aI3640
aI3650
aI3660
aI3670
aI3680
aI3690
aI3700
aI3710
aI3720
aI3730
aI3740
aI3750
aI3760
aI3770
aI3780
aI3790
aI3800
aI3810
aI3820
aI3830
aI3840
aI3850
aI3860
aI3870
aI3880
aI3890
aI3900
aI3910
aI3920
aI3930
aI3940
aI3950
aI3960
aI3970
aI3980
aI3990
aI4000
aI4010
aI4020
aI4030
aI4040
aI4050
aI4060
aI4070
aI4080
aI4090
aI4100
aI4110
aI4120
aI4130
aI4140
aI4150
aI4160
aI4170
aI4180
aI4190
aI4200
aI4210
aI4220
aI4230
aI4240
aI4250
aI4260
aI4270
aI4280
aI4290
aI4300
aI4310
aI4320
aI4330
aI4340
aI4350
aI4360
aI4370
aI4380
aI4390
aI4400
aI4410
aI4420
aI4430
aI4440
aI4450
aI4460
aI4470
aI4480
aI4490
aI4500
aI4510
aI4520
aI4530
aI4540
aI4550
aI4560
aI4570
aI4580
aI4590
aI4600
aI4610
aI4620
aI4630
aI4640
aI4650
aI4660
aI4670
aI4680
aI4690
aI4700
aI4710
aI4720
aI4730
aI4740
aI4750
aI4760
aI4770
aI4780
aI4790
aI4800
aI4810
aI4820
aI4830
aI4840
aI4850
aI4860
aI4870
aI4880
aI4890
aI4900
aI4910
aI4920
aI4930
aI4940
aI4950
aI4960
aI4970
aI4980
aI4990
aI5000
aI5010
aI5020
aI5030
aI5040
aI5050
aI5060
aI5070
aI5080
aI5090
aI5100
aI5110
aI5120
aI5130
aI5140
aI5150
aI5160
aI5170
aI5180
aI5190
aI5200
aI5210
aI5220
aI5230
aI5240
aI5250
aI5260
aI5270
aI5280
aI5290
aI5300
aI5310
aI5320
aI5330
aI5340
aI5350
aI5360
aI5370
aI5380
aI5390
aI5400
aI5410
aI5420
aI5430
aI5440
aI5450
aI5460
aI5470
aI5480
aI5490
aI5500
aI5510
aI5520
aI5530
aI5540
aI5550
aI5560
aI5570
aI5580
aI5590
aI5600
aI5610
aI5620
aI5630
aI5640
aI5650
aI5660
aI5670
aI5680
aI5690
aI5700
aI5710
aI5720
aI5730
aI5740
aI5750
aI5760
aI5770
aI5780
aI5790
aI5800
aI5810
aI5820
aI5830
aI5840
aI5850
aI5860
aI5870
aI5880
aI5890
aI5900
aI5910
aI5920
aI5930
aI5940
aI5950
aI5960
aI5970
aI5980
aI5990
aI6000
aI6010
aI6020
aI6030
aI6040
aI6050
aI6060
aI6070
aI6080
aI6090
aI6100
aI6110
aI6120
aI6130
aI6140
aI6150
aI6160
aI6170
aI6180
aI6190
aI6200
aI6210
aI6220
aI6230
aI6240
aI6250
aI6260
aI6270
aI6280
aI6290
aI6300
aI6310
aI6320
aI6330
aI6340
aI6350
aI6360
aI6370
aI6380
aI6390
aI6400
aI6410
aI6420
aI6430
aI6440
aI6450
aI6460
aI6470
aI6480
aI6490
aI6500
aI6510
aI6520
aI6530
aI6540
aI6550
aI6560
aI6570
aI6580
aI6590
aI6600
aI6610
aI6620
aI6630
aI6640
aI6650
aI6660
aI6670
aI6680
aI6690
aI6700
aI6710
aI6720
aI6730
aI6740
aI6750
aI6760
aI6770
aI6780
aI6790
aI6800
aI6810
aI6820
aI6830
aI6840
aI6850
aI6860
aI6870
aI6880
aI6890
aI6900
aI6910
aI6920
aI6930
aI6940
aI6950
aI6960
aI6970
aI6980
aI6990
aI7000
aI7010
aI7020
aI7030
aI7040
aI7050
aI7060
aI7070
aI7080
aI7090
aI7100
aI7110
aI7120
aI7130
aI7140
aI7150
aI7160
aI7170
aI7180
aI7190
aI7200
aI7210
aI7220
aI7230
aI7240
aI7250
aI7260
aI7270
aI7280
aI7290
aI7300
aI7310
aI7320
aI7330
aI7340
aI7350
aI7360
aI7370
aI7380
aI7390
aI7400
aI7410
aI7420
aI7430
aI7440
aI7450
aI7460
aI7470
aI7480
aI7490
aI7500
aI7510
aI7520
aI7530
aI7540
aI7550
aI7560
aI7570
aI7580
aI7590
aI7600
aI7610
aI7620
aI7630
aI7640
aI7650
aI7660
aI7670
aI7680
aI7690
aI7700
aI7710
aI7720
aI7730
aI7740
aI7750
aI7760
aI7770
aI7780
aI7790
aI7800
aI7810
aI7820
aI7830
aI7840
aI7850
aI7860
aI7870
aI7880
aI7890
aI7900
aI7910
aI7920
aI7930
aI7940
aI7950
aI7960
aI7970
aI7980
aI7990
aI8000
aI8010
aI8020
aI8030
aI8040
aI8050
aI8060
aI8070
aI8080
aI8090
aI8100
aI8110
aI8120
aI8130
aI8140
aI8150
aI8160
aI8170
aI8180
aI8190
aI8200
aI8210
aI8220
aI8230
aI8240
aI8250
aI8260
aI8270
aI8280
aI8290
aI8300
aI8310
aI8320
aI8330
aI8340
aI8350
aI8360
aI8370
aI8380
aI8390
aI8400
aI8410
aI8420
aI8430
aI8440
aI8450
aI8460
aI8470
aI8480
aI8490
aI8500
aI8510
aI8520
aI8530
aI8540
aI8550
aI8560
aI8570
aI8580
aI8590
aI8600
aI8610
aI8620
aI8630
aI8640
aI8650
aI8660
aI8670
aI8680
aI8690
aI8700
aI8710
aI8720
aI8730
aI8740
aI8750
aI8760
aI8770
aI8780
aI8790
aI8800
aI8810
aI8820
aI8830
aI8840
aI8850
aI8860
aI8870
aI8880
aI8890
aI8900
aI8910
aI8920
aI8930
aI8940
aI8950
aI8960
aI8970
aI8980
aI8990
aI9000
aI9010
aI9020
aI9030
aI9040
aI9050
aI9060
asS'est'
p5
(lp6
I0
aI0
aI118
aI121
aI123
aI123
aI124
aI106
aI99
aI110
aI116
aI121
aI146
aI75
aI75
aI77
aI93
aI101
aI111
aI117
aI138
aI135
aI149
aI273
aI223
aI265
aI314
aI381
aI364
aI364
aI432
aI447
aI433
aI513
aI468
aI484
aI512
aI483
aI535
aI529
aI503
aI551
aI531
aI501
aI519
aI522
aI534
aI538
aI527
aI558
aI551
aI570
aI572
aI583
aI596
aI589
aI587
aI599
aI603
aI620
aI608
aI615
aI660
aI664
aI662
aI679
aI674
aI689
aI663
aI670
aI698
aI694
aI695
aI714
aI721
aI728
aI740
aI743
aI764
aI777
aI779
aI804
aI797
aI818
aI825
aI842
aI850
aI857
aI864
aI882
aI877
aI900
aI915
aI930
aI932
aI957
aI965
aI953
aI976
aI981
aI992
aI999
aI1027
aI1016
aI1032
aI1038
aI1057
aI1071
aI1090
aI1066
aI1087
aI1103
aI1104
aI1117
aI1124
aI1128
aI1147
aI1155
aI1165
aI1173
aI1172
aI1211
aI1203
aI1234
aI1249
aI1253
aI1263
aI1280
aI1307
aI1350
aI1334
aI1350
aI1384
aI1382
aI1422
aI1442
aI1458
aI1451
aI1469
aI1470
aI1485
aI1517
aI1511
aI1540
aI1531
aI1573
aI1565
aI1598
aI1597
aI1623
aI1647
aI1669
aI1707
aI1669
aI1709
aI1670
aI1681
aI1713
aI1719
aI1728
aI1718
aI1719
aI1729
aI1731
aI1742
aI1747
aI1741
aI1752
aI1760
aI1746
aI1756
aI1762
aI1758
aI1766
aI1771
aI1793
aI1797
aI1783
aI1821
aI1824
aI1848
aI1862
aI1833
aI1850
aI1887
aI1876
aI1850
aI1842
aI1836
aI1844
aI1848
aI1868
aI1853
aI1877
aI1863
aI1880
aI1880
aI1903
aI1955
aI1952
aI1950
aI1950
aI1906
aI1908
aI1900
aI1908
aI1911
aI1922
aI1915
aI1921
aI1916
aI1925
aI1920
aI1917
aI1905
aI1916
aI1914
aI1923
aI1938
aI1919
aI1938
aI1937
aI1947
aI1938
aI1936
aI1930
aI1940
aI1932
aI1937
aI1890
aI1895
aI1894
aI1900
aI1888
aI1897
aI1879
aI1851
aI1850
aI1847
aI1845
aI1846
aI1850
aI1844
aI1861
aI1846
aI1812
aI1814
aI1798
aI1786
aI1772
aI1775
aI1794
aI1775
aI1774
aI1774
aI1749
aI1808
aI1793
aI1792
aI1801
aI1792
aI1785
aI1787
aI1753
aI1735
aI1732
aI1732
aI1725
aI1702
aI1702
aI1682
aI1699
aI1694
aI1679
aI1687
aI1692
aI1673
aI1689
aI1687
aI1670
aI1684
aI1684
aI1667
aI1664
aI1664
aI1665
aI1656
aI1663
aI1656
aI1647
aI1648
aI1645
aI1634
aI1648
aI1633
aI1638
aI1643
aI1640
aI1638
aI1627
aI1619
aI1602
aI1602
aI1596
aI1599
aI1597
aI1576
aI1562
aI1564
aI1568
aI1567
aI1569
aI1571
aI1564
aI1575
aI1568
aI1564
aI1562
aI1552
aI1552
aI1561
aI1553
aI1557
aI1559
aI1560
aI1556
aI1548
aI1547
aI1549
aI1555
aI1551
aI1546
aI1548
aI1544
aI1548
aI1548
aI1547
aI1539
aI1547
aI1552
aI1551
aI1546
aI1549
aI1551
aI1546
aI1546
aI1546
aI1544
aI1546
aI1545
aI1544
aI1544
aI1544
aI1541
aI1542
aI1538
aI1539
aI1538
aI1538
aI1536
aI1534
aI1534
aI1534
aI1534
aI1533
aI1531
aI1532
aI1530
aI1530
aI1529
aI1529
aI1527
aI1528
aI1527
aI1526
aI1526
aI1524
aI1523
aI1525
aI1522
aI1521
aI1513
aI1512
aI1513
aI1514
aI1511
aI1505
aI1505
aI1504
aI1503
aI1506
aI1506
aI1506
aI1501
aI1503
aI1503
aI1501
aI1501
aI1499
aI1498
aI1498
aI1497
aI1497
aI1496
aI1495
aI1491
aI1489
aI1489
aI1488
aI1485
aI1481
aI1481
aI1478
aI1480
aI1477
aI1476
aI1474
aI1474
aI1473
aI1473
aI1470
aI1465
aI1464
aI1459
aI1456
aI1454
aI1458
aI1453
aI1453
aI1455
aI1490
aI1496
aI1499
aI1511
aI1518
aI1525
aI1534
aI1532
aI1529
aI1529
aI1529
aI1525
aI1518
aI1515
aI1514
aI1516
aI1513
aI1510
aI1506
aI1503
aI1502
aI1501
aI1500
aI1500
aI1500
aI1499
aI1500
aI1499
aI1498
aI1497
aI1497
aI1496
aI1493
aI1495
aI1492
aI1491
aI1491
aI1491
aI1491
aI1491
aI1492
aI1491
aI1492
aI1492
aI1490
aI1488
aI1490
aI1489
aI1489
aI1491
aI1492
aI1494
aI1493
aI1492
aI1493
aI1494
aI1494
aI1493
aI1492
aI1492
aI1491
aI1491
aI1490
aI1490
aI1489
aI1489
aI1488
aI1487
aI1487
aI1487
aI1486
aI1486
aI1485
aI1485
aI1484
aI1484
aI1483
aI1483
aI1482
aI1482
aI1482
aI1481
aI1481
aI1481
aI1481
aI1480
aI1480
aI1479
aI1479
aI1478
aI1479
aI1479
aI1477
aI1476
aI1475
aI1476
aI1476
aI1475
aI1475
aI1474
aI1474
aI1474
aI1474
aI1474
aI1473
aI1473
aI1473
aI1472
aI1472
aI1471
aI1471
aI1471
aI1471
aI1470
aI1469
aI1469
aI1468
aI1467
aI1467
aI1467
aI1467
aI1466
aI1466
aI1466
aI1465
aI1465
aI1464
aI1464
aI1463
aI1463
aI1463
aI1463
aI1462
aI1461
aI1461
aI1460
aI1461
aI1460
aI1460
aI1460
aI1459
aI1460
aI1460
aI1460
aI1460
aI1462
aI1464
aI1466
aI1468
aI1468
aI1468
aI1467
aI1467
aI1467
aI1467
aI1466
aI1466
aI1465
aI1465
aI1465
aI1466
aI1464
aI1463
aI1463
aI1462
aI1461
aI1461
aI1462
aI1460
aI1463
aI1464
aI1464
aI1465
aI1467
aI1466
aI1467
aI1466
aI1466
aI1466
aI1465
aI1464
aI1465
aI1465
aI1466
aI1466
aI1465
aI1465
aI1465
aI1462
aI1462
aI1460
aI1459
aI1459
aI1459
aI1458
aI1459
aI1459
aI1459
aI1460
aI1458
aI1458
aI1459
aI1456
aI1454
aI1454
aI1453
aI1454
aI1453
aI1451
aI1451
aI1450
aI1450
aI1450
aI1449
aI1449
aI1449
aI1449
aI1449
aI1448
aI1448
aI1448
aI1447
aI1447
aI1447
aI1448
aI1447
aI1447
aI1447
aI1446
aI1447
aI1447
aI1447
aI1446
aI1447
aI1447
aI1446
aI1446
aI1446
aI1445
aI1448
aI1449
aI1448
aI1448
aI1448
aI1449
aI1449
aI1448
aI1448
aI1449
aI1449
aI1449
aI1448
aI1448
aI1447
aI1446
aI1448
aI1448
aI1446
aI1447
aI1447
aI1447
aI1446
aI1446
aI1446
aI1445
aI1445
aI1444
aI1445
aI1445
aI1445
aI1445
aI1445
aI1444
aI1444
aI1443
aI1442
aI1442
aI1442
aI1442
aI1442
aI1441
aI1441
aI1441
aI1441
aI1441
aI1441
aI1441
aI1441
aI1440
aI1440
aI1442
aI1441
aI1441
aI1441
aI1440
aI1440
aI1440
aI1440
aI1440
aI1440
aI1440
aI1440
aI1440
aI1439
aI1441
aI1441
aI1440
aI1440
aI1440
aI1442
aI1442
aI1441
aI1442
aI1441
aI1441
aI1441
aI1440
aI1440
aI1440
aI1440
aI1440
aI1440
aI1440
aI1439
aI1439
aI1439
aI1439
aI1438
aI1438
aI1438
aI1438
aI1437
aI1437
aI1436
aI1435
aI1435
aI1435
aI1435
aI1434
aI1434
aI1434
aI1434
aI1434
aI1434
aI1433
aI1433
aI1433
aI1433
aI1433
aI1433
aI1433
aI1433
aI1432
aI1432
aI1433
aI1433
aI1433
aI1433
aI1433
aI1432
aI1432
aI1432
aI1432
aI1432
aI1431
aI1431
aI1431
aI1432
aI1431
aI1432
aI1431
aI1431
aI1431
aI1431
aI1430
aI1431
aI1430
aI1430
aI1429
aI1429
aI1429
aI1429
aI1429
aI1428
aI1428
aI1428
aI1427
aI1427
aI1427
aI1427
aI1426
aI1426
aI1426
aI1426
aI1426
aI1425
aI1425
aI1425
aI1425
aI1425
aI1425
aI1425
aI1425
aI1425
aI1424
aI1424
aI1424
aI1424
aI1424
aI1424
aI1424
aI1423
aI1424
aI1424
aI1424
aI1424
aI1423
aI1423
aI1423
aI1422
aI1422
aI1422
aI1422
aI1422
aI1421
aI1421
aI1421
aI1421
aI1421
aI1421
aI1420
aI1420
aI1420
aI1420
aI1420
aI1420
aI1420
aI1420
aI1420
aI1419
aI1420
aI1419
aI1419
aI1419
aI1419
aI1419
aI1419
aI1418
aI1418
aI1418
aI1418
aI1418
aI1418
aI1418
aI1417
aI1417
aI1417
aI1417
aI1417
aI1417
aI1417
aI1417
aI1417
aI1417
aI1416
aI1416
aI1416
aI1416
aI1416
aI1415
aI1415
aI1415
aI1415
aI1415
aI1415
aI1415
aI1415
asS'pos'
p7
(lp8
I0
aI1
aI1
aI1
aI1
aI1
aI6
aI12
aI22
aI26
aI28
aI28
aI30
aI32
aI35
aI44
aI54
aI64
aI72
aI82
aI91
aI99
aI105
aI113
aI120
aI126
aI133
aI138
aI146
aI156
aI164
aI173
aI183
aI192
aI197
aI204
aI213
aI219
aI225
aI231
aI239
aI245
aI252
aI262
aI271
aI279
aI287
aI297
aI307
aI317
aI327
aI333
aI342
aI349
aI358
aI368
aI375
aI384
aI394
aI404
aI412
aI422
aI432
aI442
aI450
aI460
aI470
aI476
aI485
aI494
aI503
aI511
aI519
aI527
aI537
aI546
aI556
aI566
aI573
aI580
aI589
aI598
aI608
aI617
aI627
aI637
aI647
aI653
aI663
aI672
aI681
aI691
aI701
aI710
aI719
aI727
aI736
aI745
aI753
aI760
aI768
aI778
aI786
aI796
aI803
aI811
aI821
aI829
aI839
aI849
aI857
aI865
aI873
aI881
aI889
aI899
aI909
aI917
aI926
aI934
aI944
aI954
aI962
aI972
aI980
aI990
aI998
aI1008
aI1018
aI1025
aI1035
aI1043
aI1053
aI1063
aI1072
aI1082
aI1090
aI1098
aI1107
aI1113
aI1120
aI1129
aI1135
aI1143
aI1149
aI1156
aI1163
aI1173
aI1182
aI1191
aI1196
aI1203
aI1210
aI1212
aI1213
aI1214
aI1217
aI1220
aI1223
aI1223
aI1227
aI1228
aI1231
aI1240
aI1243
aI1244
aI1244
aI1247
aI1249
aI1250
aI1252
aI1253
aI1255
aI1256
aI1258
aI1258
aI1258
aI1259
aI1259
aI1259
aI1262
aI1266
aI1270
aI1273
aI1274
aI1274
aI1277
aI1280
aI1282
aI1283
aI1284
aI1284
aI1284
aI1284
aI1285
aI1288
aI1288
aI1288
aI1288
aI1288
aI1290
aI1290
aI1290
aI1290
aI1291
aI1292
aI1294
aI1294
aI1294
aI1294
aI1294
aI1295
aI1295
aI1295
aI1295
aI1296
aI1296
aI1296
aI1296
aI1297
aI1298
aI1298
aI1298
aI1299
aI1300
aI1300
aI1300
aI1300
aI1302
aI1302
aI1302
aI1302
aI1302
aI1303
aI1304
aI1305
aI1306
aI1306
aI1306
aI1306
aI1307
aI1308
aI1309
aI1309
aI1309
aI1309
aI1309
aI1309
aI1309
aI1309
aI1309
aI1310
aI1310
aI1310
aI1311
aI1311
aI1311
aI1311
aI1313
aI1313
aI1314
aI1314
aI1314
aI1314
aI1314
aI1314
aI1314
aI1314
aI1314
aI1314
aI1314
aI1315
aI1315
aI1315
aI1315
aI1315
aI1315
aI1316
aI1316
aI1316
aI1316
aI1317
aI1318
aI1318
aI1318
aI1319
aI1319
aI1319
aI1319
aI1319
aI1319
aI1321
aI1321
aI1321
aI1322
aI1322
aI1322
aI1322
aI1322
aI1322
aI1322
aI1322
aI1322
aI1322
aI1322
aI1322
aI1322
aI1322
aI1322
aI1322
aI1322
aI1322
aI1322
aI1322
aI1322
aI1322
aI1322
aI1322
aI1322
aI1322
aI1322
aI1322
aI1322
aI1322
aI1322
aI1322
aI1322
aI1322
aI1323
aI1323
aI1323
aI1323
aI1323
aI1323
aI1323
aI1323
aI1323
aI1328
aI1328
aI1328
aI1328
aI1328
aI1328
aI1328
aI1328
aI1328
aI1328
aI1328
aI1328
aI1328
aI1328
aI1328
aI1328
aI1328
aI1328
aI1328
aI1328
aI1328
aI1328
aI1328
aI1328
aI1328
aI1328
aI1328
aI1328
aI1328
aI1328
aI1328
aI1328
aI1328
aI1328
aI1329
aI1329
aI1329
aI1329
aI1329
aI1329
aI1329
aI1330
aI1330
aI1330
aI1330
aI1330
aI1330
aI1330
aI1330
aI1330
aI1330
aI1330
aI1330
aI1330
aI1330
aI1330
aI1330
aI1330
aI1330
aI1330
aI1330
aI1330
aI1330
aI1330
aI1330
aI1330
aI1330
aI1330
aI1330
aI1330
aI1330
aI1330
aI1330
aI1330
aI1330
aI1330
aI1330
aI1330
aI1330
aI1330
aI1330
aI1330
aI1330
aI1330
aI1330
aI1330
aI1330
aI1330
aI1330
aI1330
aI1330
aI1330
aI1337
aI1347
aI1357
aI1367
aI1376
aI1386
aI1396
aI1398
aI1398
aI1398
aI1398
aI1398
aI1398
aI1398
aI1398
aI1398
aI1398
aI1398
aI1398
aI1398
aI1398
aI1398
aI1398
aI1398
aI1398
aI1398
aI1398
aI1398
aI1398
aI1398
aI1398
aI1398
aI1398
aI1398
aI1398
aI1398
aI1398
aI1398
aI1398
aI1398
aI1399
aI1399
aI1399
aI1399
aI1399
aI1399
aI1399
aI1399
aI1399
aI1400
aI1401
aI1402
aI1402
aI1402
aI1402
aI1403
aI1403
aI1403
aI1403
aI1403
aI1403
aI1403
aI1403
aI1403
aI1403
aI1403
aI1403
aI1403
aI1403
aI1403
aI1403
aI1403
aI1403
aI1403
aI1403
aI1403
aI1403
aI1403
aI1403
aI1403
aI1403
aI1403
aI1403
aI1403
aI1403
aI1403
aI1403
aI1403
aI1403
aI1403
aI1403
aI1403
aI1403
aI1403
aI1403
aI1403
aI1403
aI1403
aI1403
aI1403
aI1403
aI1403
aI1403
aI1403
aI1403
aI1403
aI1403
aI1403
aI1403
aI1403
aI1403
aI1403
aI1403
aI1403
aI1403
aI1403
aI1403
aI1403
aI1403
aI1403
aI1403
aI1403
aI1403
aI1403
aI1403
aI1403
aI1403
aI1403
aI1403
aI1403
aI1403
aI1403
aI1403
aI1403
aI1403
aI1403
aI1403
aI1403
aI1403
aI1403
aI1403
aI1403
aI1403
aI1403
aI1403
aI1404
aI1405
aI1405
aI1406
aI1406
aI1406
aI1406
aI1406
aI1406
aI1406
aI1406
aI1406
aI1406
aI1406
aI1406
aI1406
aI1406
aI1406
aI1406
aI1406
aI1406
aI1406
aI1406
aI1406
aI1406
aI1406
aI1406
aI1406
aI1406
aI1406
aI1406
aI1406
aI1406
aI1406
aI1406
aI1406
aI1406
aI1406
aI1406
aI1406
aI1406
aI1406
aI1406
aI1406
aI1406
aI1406
aI1406
aI1406
aI1406
aI1406
aI1406
aI1406
aI1406
aI1406
aI1406
aI1406
aI1406
aI1406
aI1406
aI1406
aI1406
aI1406
aI1406
aI1406
aI1406
aI1406
aI1406
aI1406
aI1406
aI1406
aI1406
aI1406
aI1406
aI1406
aI1406
aI1406
aI1406
aI1406
aI1406
aI1406
aI1406
aI1406
aI1406
aI1406
aI1406
aI1406
aI1406
aI1406
aI1406
aI1406
aI1406
aI1406
aI1406
aI1406
aI1408
aI1409
aI1409
aI1409
aI1409
aI1410
aI1410
aI1410
aI1410
aI1411
aI1411
aI1411
aI1411
aI1411
aI1411
aI1411
aI1411
aI1411
aI1411
aI1411
aI1411
aI1411
aI1411
aI1411
aI1411
aI1411
aI1411
aI1411
aI1411
aI1411
aI1411
aI1411
aI1411
aI1411
aI1411
aI1411
aI1411
aI1411
aI1411
aI1411
aI1411
aI1411
aI1411
aI1411
aI1411
aI1411
aI1411
aI1411
aI1411
aI1411
aI1411
aI1411
aI1411
aI1411
aI1411
aI1411
aI1411
aI1411
aI1411
aI1411
aI1411
aI1411
aI1411
aI1411
aI1411
aI1412
aI1412
aI1412
aI1412
aI1412
aI1412
aI1412
aI1412
aI1412
aI1412
aI1412
aI1412
aI1412
aI1412
aI1412
aI1412
aI1412
aI1412
aI1412
aI1412
aI1412
aI1412
aI1412
aI1412
aI1412
aI1412
aI1412
aI1412
aI1412
aI1412
aI1412
aI1412
aI1412
aI1412
aI1412
aI1412
aI1412
aI1412
aI1412
aI1412
aI1412
aI1412
aI1412
aI1412
aI1412
aI1412
aI1412
aI1412
aI1412
aI1412
aI1412
aI1412
aI1412
aI1412
aI1412
aI1412
aI1412
aI1412
aI1412
aI1412
aI1412
aI1412
aI1412
aI1412
aI1412
aI1412
aI1412
aI1412
aI1412
aI1412
aI1412
aI1412
aI1412
aI1412
aI1412
aI1412
aI1412
aI1412
aI1412
aI1412
aI1412
aI1412
aI1412
aI1412
aI1412
aI1412
aI1412
aI1412
aI1412
aI1412
aI1412
aI1412
aI1412
aI1412
aI1412
aI1412
aI1412
aI1412
aI1412
aI1412
aI1412
aI1412
aI1412
aI1412
aI1412
aI1412
aI1412
aI1412
aI1412
aI1412
aI1412
aI1412
aI1412
aI1412
aI1412
aI1412
aI1412
aI1412
aI1412
aI1412
aI1412
aI1412
aI1412
aI1412
aI1412
aI1412
aI1412
aI1412
aI1412
aI1412
aI1412
aI1412
aI1412
aI1412
aI1412
aI1412
aI1412
aI1412
aI1412
aI1412
aI1412
aI1412
aI1412
aI1412
aI1412
aI1412
aI1412
aI1412
aI1412
aI1412
aI1412
aI1412
aI1412
aI1412
aI1412
aI1412
aI1412
aI1412
aI1412
aI1412
aI1412
aI1412
aI1412
aI1412
aI1412
aI1412
aI1412
aI1412
aI1412
aI1412
aI1412
aI1412
aI1412
aI1413
assS'supervised'
p9
(dp10
g3
(lp11
I0
aI10
aI20
aI30
aI40
aI50
aI60
aI70
aI80
aI90
aI100
aI110
aI120
aI130
aI140
aI150
aI160
aI170
aI180
aI190
aI200
aI210
aI220
aI230
aI240
aI250
aI260
aI270
aI280
aI290
aI300
aI310
aI320
aI330
aI340
aI350
aI360
aI370
aI380
aI390
aI400
aI410
aI420
aI430
aI440
aI450
aI460
aI470
aI480
aI490
aI500
aI510
aI520
aI530
aI540
aI550
aI560
aI570
aI580
aI590
aI600
aI610
aI620
aI630
aI640
aI650
aI660
aI670
aI680
aI690
aI700
aI710
aI720
aI730
aI740
aI750
aI760
aI770
aI780
aI790
aI800
aI810
aI820
aI830
aI840
aI850
aI860
aI870
aI880
aI890
aI900
aI910
aI920
aI930
aI940
aI950
aI960
aI970
aI980
aI990
aI1000
aI1010
aI1020
aI1030
aI1040
aI1050
aI1060
aI1070
aI1080
aI1090
aI1100
aI1110
aI1120
aI1130
aI1140
aI1150
aI1160
aI1170
aI1180
aI1190
aI1200
aI1210
aI1220
aI1230
aI1240
aI1250
aI1260
aI1270
aI1280
aI1290
aI1300
aI1310
aI1320
aI1330
aI1340
aI1350
aI1360
aI1370
aI1380
aI1390
aI1400
aI1410
aI1420
aI1430
aI1440
aI1450
aI1460
aI1470
aI1480
aI1490
aI1500
aI1510
aI1520
aI1530
aI1540
aI1550
aI1560
aI1570
aI1580
aI1590
aI1600
aI1610
aI1620
aI1630
aI1640
aI1650
aI1660
aI1670
aI1680
aI1690
aI1700
aI1710
aI1720
aI1730
aI1740
aI1750
aI1760
aI1770
aI1780
aI1790
aI1800
aI1810
aI1820
aI1830
aI1840
aI1850
aI1860
aI1870
aI1880
aI1890
aI1900
aI1910
aI1920
aI1930
aI1940
aI1950
aI1960
aI1970
aI1980
aI1990
aI2000
aI2010
aI2020
aI2030
aI2040
aI2050
aI2060
aI2070
aI2080
aI2090
aI2100
aI2110
aI2120
aI2130
aI2140
aI2150
aI2160
aI2170
aI2180
aI2190
aI2200
aI2210
aI2220
aI2230
aI2240
aI2250
aI2260
aI2270
aI2280
aI2290
aI2300
aI2310
aI2320
aI2330
aI2340
aI2350
aI2360
aI2370
aI2380
aI2390
aI2400
aI2410
aI2420
aI2430
aI2440
aI2450
aI2460
aI2470
aI2480
aI2490
aI2500
aI2510
aI2520
aI2530
aI2540
aI2550
aI2560
aI2570
aI2580
aI2590
aI2600
aI2610
aI2620
aI2630
aI2640
aI2650
aI2660
aI2670
aI2680
aI2690
aI2700
aI2710
aI2720
aI2730
aI2740
aI2750
aI2760
aI2770
aI2780
aI2790
aI2800
aI2810
aI2820
aI2830
aI2840
aI2850
aI2860
aI2870
aI2880
aI2890
aI2900
aI2910
aI2920
aI2930
aI2940
aI2950
aI2960
aI2970
aI2980
aI2990
aI3000
aI3010
aI3020
aI3030
aI3040
aI3050
aI3060
aI3070
aI3080
aI3090
aI3100
aI3110
aI3120
aI3130
aI3140
aI3150
aI3160
aI3170
aI3180
aI3190
aI3200
aI3210
aI3220
aI3230
aI3240
aI3250
aI3260
aI3270
aI3280
aI3290
aI3300
aI3310
aI3320
aI3330
aI3340
aI3350
aI3360
aI3370
aI3380
aI3390
aI3400
aI3410
aI3420
aI3430
aI3440
aI3450
aI3460
aI3470
aI3480
aI3490
aI3500
aI3510
aI3520
aI3530
aI3540
aI3550
aI3560
aI3570
aI3580
aI3590
aI3600
aI3610
aI3620
aI3630
aI3640
aI3650
aI3660
aI3670
aI3680
aI3690
aI3700
aI3710
aI3720
aI3730
aI3740
aI3750
aI3760
aI3770
aI3780
aI3790
aI3800
aI3810
aI3820
aI3830
aI3840
aI3850
aI3860
aI3870
aI3880
aI3890
aI3900
aI3910
aI3920
aI3930
aI3940
aI3950
aI3960
aI3970
aI3980
aI3990
aI4000
aI4010
aI4020
aI4030
aI4040
aI4050
aI4060
aI4070
aI4080
aI4090
aI4100
aI4110
aI4120
aI4130
aI4140
aI4150
aI4160
aI4170
aI4180
aI4190
aI4200
aI4210
aI4220
aI4230
aI4240
aI4250
aI4260
aI4270
aI4280
aI4290
aI4300
aI4310
aI4320
aI4330
aI4340
aI4350
aI4360
aI4370
aI4380
aI4390
aI4400
aI4410
aI4420
aI4430
aI4440
aI4450
aI4460
aI4470
aI4480
aI4490
aI4500
aI4510
aI4520
aI4530
aI4540
aI4550
aI4560
aI4570
aI4580
aI4590
aI4600
aI4610
aI4620
aI4630
aI4640
aI4650
aI4660
aI4670
aI4680
aI4690
aI4700
aI4710
aI4720
aI4730
aI4740
aI4750
aI4760
aI4770
aI4780
aI4790
aI4800
aI4810
aI4820
aI4830
aI4840
aI4850
aI4860
aI4870
aI4880
aI4890
aI4900
aI4910
aI4920
aI4930
aI4940
aI4950
aI4960
aI4970
aI4980
aI4990
aI5000
aI5010
aI5020
aI5030
aI5040
aI5050
aI5060
aI5070
aI5080
aI5090
aI5100
aI5110
aI5120
aI5130
aI5140
aI5150
aI5160
aI5170
aI5180
aI5190
aI5200
aI5210
aI5220
aI5230
aI5240
aI5250
aI5260
aI5270
aI5280
aI5290
aI5300
aI5310
aI5320
aI5330
aI5340
aI5350
aI5360
aI5370
aI5380
aI5390
aI5400
aI5410
aI5420
aI5430
aI5440
aI5450
aI5460
aI5470
aI5480
aI5490
aI5500
aI5510
aI5520
aI5530
aI5540
aI5550
aI5560
aI5570
aI5580
aI5590
aI5600
aI5610
aI5620
aI5630
aI5640
aI5650
aI5660
aI5670
aI5680
aI5690
aI5700
aI5710
aI5720
aI5730
aI5740
aI5750
aI5760
aI5770
aI5780
aI5790
aI5800
aI5810
aI5820
aI5830
aI5840
aI5850
aI5860
aI5870
aI5880
aI5890
aI5900
aI5910
aI5920
aI5930
aI5940
aI5950
aI5960
aI5970
aI5980
aI5990
aI6000
aI6010
aI6020
aI6030
aI6040
aI6050
aI6060
aI6070
aI6080
aI6090
aI6100
aI6110
aI6120
aI6130
aI6140
aI6150
aI6160
aI6170
aI6180
aI6190
aI6200
aI6210
aI6220
aI6230
aI6240
aI6250
aI6260
aI6270
aI6280
aI6290
aI6300
aI6310
aI6320
aI6330
aI6340
aI6350
aI6360
aI6370
aI6380
aI6390
aI6400
aI6410
aI6420
aI6430
aI6440
aI6450
aI6460
aI6470
aI6480
aI6490
aI6500
aI6510
aI6520
aI6530
aI6540
aI6550
aI6560
aI6570
aI6580
aI6590
aI6600
aI6610
aI6620
aI6630
aI6640
aI6650
aI6660
aI6670
aI6680
aI6690
aI6700
aI6710
aI6720
aI6730
aI6740
aI6750
aI6760
aI6770
aI6780
aI6790
aI6800
aI6810
aI6820
aI6830
aI6840
aI6850
aI6860
aI6870
aI6880
aI6890
aI6900
aI6910
aI6920
aI6930
aI6940
aI6950
aI6960
aI6970
aI6980
aI6990
aI7000
aI7010
aI7020
aI7030
aI7040
aI7050
aI7060
aI7070
aI7080
aI7090
aI7100
aI7110
aI7120
aI7130
aI7140
aI7150
aI7160
aI7170
aI7180
aI7190
aI7200
aI7210
aI7220
aI7230
aI7240
aI7250
aI7260
aI7270
aI7280
aI7290
aI7300
aI7310
aI7320
aI7330
aI7340
aI7350
aI7360
aI7370
aI7380
aI7390
aI7400
aI7410
aI7420
aI7430
aI7440
aI7450
aI7460
aI7470
aI7480
aI7490
aI7500
aI7510
aI7520
aI7530
aI7540
aI7550
aI7560
aI7570
aI7580
aI7590
aI7600
aI7610
aI7620
aI7630
aI7640
aI7650
aI7660
aI7670
aI7680
aI7690
aI7700
aI7710
aI7720
aI7730
aI7740
aI7750
aI7760
aI7770
aI7780
aI7790
aI7800
aI7810
aI7820
aI7830
aI7840
aI7850
aI7860
aI7870
aI7880
aI7890
aI7900
aI7910
aI7920
aI7930
aI7940
aI7950
aI7960
aI7970
aI7980
aI7990
aI8000
aI8010
aI8020
aI8030
aI8040
aI8050
aI8060
aI8070
aI8080
aI8090
aI8100
aI8110
aI8120
aI8130
aI8140
aI8150
aI8160
aI8170
aI8180
aI8190
aI8200
aI8210
aI8220
aI8230
aI8240
aI8250
aI8260
aI8270
aI8280
aI8290
aI8300
aI8310
aI8320
aI8330
aI8340
aI8350
aI8360
aI8370
aI8380
aI8390
aI8400
aI8410
aI8420
aI8430
aI8440
aI8450
aI8460
aI8470
aI8480
aI8490
aI8500
aI8510
aI8520
aI8530
aI8540
aI8550
aI8560
aI8570
aI8580
aI8590
aI8600
aI8610
aI8620
aI8630
aI8640
aI8650
aI8660
aI8670
aI8680
aI8690
aI8700
aI8710
aI8720
aI8730
aI8740
aI8750
aI8760
aI8770
aI8780
aI8790
aI8800
aI8810
aI8820
aI8830
aI8840
aI8850
aI8860
aI8870
aI8880
aI8890
aI8900
aI8910
aI8920
aI8930
aI8940
aI8950
aI8960
aI8970
aI8980
aI8990
aI9000
aI9010
aI9020
aI9030
aI9040
aI9050
aI9060
aI9070
aI9080
aI9090
aI9100
aI9110
aI9120
aI9130
aI9140
aI9150
aI9160
aI9170
aI9180
aI9190
aI9200
aI9210
aI9220
aI9230
aI9240
aI9250
aI9260
aI9270
aI9280
aI9290
aI9300
aI9310
aI9320
aI9330
aI9340
aI9350
aI9360
aI9370
aI9380
aI9390
aI9400
aI9410
aI9420
aI9430
aI9440
aI9450
aI9452
asg5
(lp12
I741
aI741
aI747
aI754
aI758
aI768
aI774
aI781
aI787
aI793
aI797
aI803
aI805
aI810
aI814
aI817
aI822
aI825
aI830
aI835
aI841
aI845
aI851
aI855
aI861
aI866
aI872
aI878
aI883
aI888
aI892
aI896
aI902
aI905
aI908
aI913
aI915
aI919
aI918
aI924
aI926
aI930
aI933
aI934
aI939
aI944
aI943
aI948
aI950
aI954
aI959
aI965
aI966
aI966
aI970
aI973
aI975
aI977
aI978
aI980
aI983
aI986
aI989
aI995
aI999
aI1004
aI1008
aI1011
aI1016
aI1018
aI1023
aI1029
aI1033
aI1037
aI1045
aI1047
aI1051
aI1057
aI1062
aI1068
aI1074
aI1077
aI1082
aI1085
aI1086
aI1090
aI1095
aI1099
aI1101
aI1107
aI1111
aI1113
aI1115
aI1118
aI1118
aI1120
aI1124
aI1129
aI1133
aI1136
aI1140
aI1144
aI1148
aI1151
aI1156
aI1161
aI1162
aI1161
aI1166
aI1170
aI1171
aI1173
aI1178
aI1182
aI1186
aI1183
aI1188
aI1193
aI1199
aI1199
aI1195
aI1199
aI1196
aI1199
aI1203
aI1208
aI1211
aI1215
aI1220
aI1219
aI1219
aI1223
aI1221
aI1226
aI1229
aI1231
aI1236
aI1243
aI1240
aI1242
aI1243
aI1245
aI1248
aI1254
aI1259
aI1263
aI1266
aI1269
aI1270
aI1273
aI1273
aI1274
aI1279
aI1279
aI1284
aI1283
aI1286
aI1288
aI1292
aI1297
aI1298
aI1297
aI1298
aI1299
aI1302
aI1304
aI1304
aI1309
aI1311
aI1308
aI1311
aI1310
aI1310
aI1311
aI1310
aI1314
aI1317
aI1320
aI1324
aI1328
aI1329
aI1329
aI1333
aI1335
aI1335
aI1334
aI1334
aI1334
aI1334
aI1334
aI1334
aI1334
aI1334
aI1334
aI1334
aI1333
aI1333
aI1333
aI1333
aI1333
aI1333
aI1333
aI1332
aI1332
aI1332
aI1332
aI1332
aI1332
aI1332
aI1332
aI1332
aI1331
aI1331
aI1331
aI1331
aI1331
aI1331
aI1331
aI1331
aI1330
aI1330
aI1330
aI1330
aI1330
aI1330
aI1330
aI1329
aI1329
aI1329
aI1329
aI1329
aI1329
aI1329
aI1329
aI1329
aI1329
aI1329
aI1329
aI1328
aI1328
aI1328
aI1328
aI1328
aI1328
aI1328
aI1328
aI1328
aI1328
aI1328
aI1327
aI1327
aI1327
aI1327
aI1327
aI1327
aI1327
aI1327
aI1327
aI1326
aI1326
aI1326
aI1326
aI1326
aI1326
aI1326
aI1326
aI1325
aI1325
aI1325
aI1325
aI1325
aI1325
aI1325
aI1325
aI1324
aI1324
aI1324
aI1324
aI1324
aI1324
aI1323
aI1323
aI1323
aI1323
aI1323
aI1322
aI1322
aI1322
aI1322
aI1322
aI1322
aI1322
aI1321
aI1321
aI1321
aI1321
aI1321
aI1321
aI1321
aI1321
aI1321
aI1321
aI1321
aI1321
aI1320
aI1320
aI1320
aI1320
aI1320
aI1320
aI1320
aI1320
aI1320
aI1319
aI1319
aI1319
aI1319
aI1319
aI1319
aI1319
aI1319
aI1319
aI1319
aI1319
aI1319
aI1319
aI1318
aI1318
aI1318
aI1318
aI1318
aI1318
aI1318
aI1318
aI1318
aI1318
aI1318
aI1317
aI1317
aI1317
aI1317
aI1317
aI1317
aI1317
aI1317
aI1317
aI1317
aI1317
aI1317
aI1316
aI1316
aI1316
aI1316
aI1316
aI1316
aI1316
aI1316
aI1315
aI1315
aI1316
aI1316
aI1316
aI1315
aI1315
aI1315
aI1315
aI1315
aI1315
aI1315
aI1315
aI1315
aI1314
aI1314
aI1314
aI1314
aI1314
aI1314
aI1314
aI1314
aI1314
aI1314
aI1314
aI1314
aI1313
aI1313
aI1313
aI1313
aI1313
aI1313
aI1313
aI1313
aI1313
aI1313
aI1313
aI1313
aI1312
aI1312
aI1312
aI1312
aI1312
aI1312
aI1312
aI1312
aI1312
aI1312
aI1311
aI1311
aI1311
aI1311
aI1311
aI1311
aI1311
aI1311
aI1311
aI1311
aI1311
aI1310
aI1310
aI1310
aI1310
aI1310
aI1310
aI1310
aI1310
aI1310
aI1310
aI1310
aI1310
aI1310
aI1310
aI1309
aI1309
aI1309
aI1309
aI1309
aI1309
aI1309
aI1308
aI1308
aI1308
aI1308
aI1308
aI1308
aI1308
aI1308
aI1308
aI1308
aI1308
aI1308
aI1307
aI1307
aI1307
aI1307
aI1307
aI1307
aI1307
aI1307
aI1307
aI1307
aI1306
aI1306
aI1306
aI1306
aI1306
aI1306
aI1305
aI1305
aI1305
aI1305
aI1305
aI1305
aI1304
aI1304
aI1304
aI1304
aI1304
aI1304
aI1304
aI1304
aI1304
aI1304
aI1304
aI1304
aI1303
aI1303
aI1303
aI1303
aI1303
aI1303
aI1303
aI1303
aI1303
aI1303
aI1303
aI1303
aI1302
aI1302
aI1302
aI1302
aI1302
aI1302
aI1302
aI1302
aI1302
aI1302
aI1301
aI1301
aI1301
aI1301
aI1301
aI1301
aI1301
aI1301
aI1301
aI1301
aI1300
aI1300
aI1300
aI1300
aI1300
aI1300
aI1300
aI1300
aI1300
aI1300
aI1300
aI1300
aI1300
aI1300
aI1299
aI1299
aI1299
aI1299
aI1299
aI1299
aI1299
aI1299
aI1299
aI1299
aI1298
aI1298
aI1298
aI1298
aI1298
aI1298
aI1298
aI1298
aI1298
aI1298
aI1298
aI1297
aI1297
aI1297
aI1297
aI1297
aI1297
aI1297
aI1297
aI1297
aI1297
aI1297
aI1297
aI1297
aI1296
aI1296
aI1296
aI1296
aI1296
aI1296
aI1296
aI1296
aI1296
aI1296
aI1295
aI1295
aI1295
aI1295
aI1295
aI1295
aI1295
aI1295
aI1295
aI1295
aI1294
aI1294
aI1294
aI1294
aI1294
aI1294
aI1294
aI1294
aI1294
aI1294
aI1294
aI1294
aI1294
aI1294
aI1294
aI1293
aI1293
aI1293
aI1293
aI1293
aI1293
aI1293
aI1293
aI1293
aI1293
aI1293
aI1293
aI1293
aI1293
aI1293
aI1292
aI1292
aI1292
aI1292
aI1292
aI1292
aI1292
aI1292
aI1292
aI1292
aI1292
aI1291
aI1291
aI1291
aI1291
aI1291
aI1291
aI1291
aI1291
aI1291
aI1291
aI1291
aI1291
aI1290
aI1290
aI1290
aI1290
aI1290
aI1290
aI1290
aI1290
aI1290
aI1289
aI1289
aI1289
aI1289
aI1289
aI1289
aI1289
aI1289
aI1289
aI1288
aI1288
aI1288
aI1288
aI1288
aI1288
aI1288
aI1288
aI1287
aI1287
aI1287
aI1287
aI1287
aI1287
aI1287
aI1287
aI1287
aI1287
aI1287
aI1286
aI1286
aI1286
aI1286
aI1286
aI1286
aI1286
aI1286
aI1286
aI1286
aI1286
aI1286
aI1286
aI1286
aI1285
aI1285
aI1285
aI1285
aI1285
aI1285
aI1285
aI1285
aI1285
aI1285
aI1285
aI1285
aI1284
aI1284
aI1284
aI1284
aI1284
aI1284
aI1284
aI1284
aI1284
aI1284
aI1284
aI1283
aI1283
aI1283
aI1283
aI1283
aI1283
aI1283
aI1283
aI1283
aI1283
aI1283
aI1283
aI1283
aI1282
aI1282
aI1282
aI1282
aI1282
aI1282
aI1282
aI1282
aI1282
aI1282
aI1282
aI1282
aI1281
aI1281
aI1281
aI1281
aI1281
aI1281
aI1281
aI1281
aI1281
aI1281
aI1281
aI1281
aI1281
aI1280
aI1280
aI1280
aI1280
aI1280
aI1280
aI1280
aI1280
aI1280
aI1280
aI1280
aI1280
aI1280
aI1279
aI1279
aI1279
aI1279
aI1279
aI1279
aI1279
aI1279
aI1279
aI1279
aI1279
aI1278
aI1278
aI1278
aI1278
aI1278
aI1278
aI1278
aI1278
aI1278
aI1278
aI1278
aI1278
aI1277
aI1277
aI1277
aI1277
aI1277
aI1277
aI1277
aI1277
aI1277
aI1277
aI1276
aI1276
aI1276
aI1276
aI1276
aI1276
aI1276
aI1276
aI1276
aI1276
aI1275
aI1275
aI1275
aI1275
aI1275
aI1275
aI1275
aI1275
aI1275
aI1275
aI1275
aI1275
aI1274
aI1274
aI1274
aI1274
aI1274
aI1274
aI1274
aI1274
aI1274
aI1273
aI1273
aI1273
aI1273
aI1273
aI1273
aI1273
aI1273
aI1273
aI1273
aI1273
aI1272
aI1272
aI1272
aI1272
aI1272
aI1272
aI1272
aI1272
aI1271
aI1271
aI1271
aI1271
aI1271
aI1271
aI1271
aI1271
aI1271
aI1270
aI1270
aI1270
aI1270
aI1270
aI1270
aI1270
aI1270
aI1270
aI1270
aI1270
aI1270
aI1270
aI1269
aI1269
aI1269
aI1269
aI1269
aI1269
aI1269
aI1269
aI1269
aI1269
aI1268
aI1268
aI1268
aI1268
aI1268
aI1268
aI1268
aI1268
aI1268
aI1268
aI1268
aI1268
aI1268
aI1267
aI1267
aI1267
aI1267
aI1267
aI1267
aI1267
aI1267
aI1267
aI1268
aI1270
aI1272
aI1276
aI1279
aI1281
aI1285
aI1287
aI1290
aI1293
aI1297
aI1299
aI1302
aI1305
aI1308
aI1311
aI1315
aI1317
aI1319
aI1323
aI1326
aI1329
aI1331
aI1331
aI1334
aI1337
aI1341
aI1345
aI1347
aI1351
aI1354
aI1358
aI1363
aI1366
aI1369
aI1372
aI1380
aI1384
aI1386
aI1388
aI1390
aI1393
aI1395
aI1396
aI1397
aI1403
aI1411
aI1412
aI1412
asg7
(lp13
I0
aI9
aI19
aI27
aI37
aI46
aI56
aI66
aI74
aI82
aI91
aI96
aI104
aI112
aI119
aI128
aI134
aI143
aI151
aI161
aI168
aI178
aI186
aI195
aI204
aI214
aI223
aI232
aI239
aI246
aI254
aI264
aI271
aI279
aI287
aI293
aI301
aI303
aI313
aI319
aI326
aI333
aI337
aI346
aI355
aI358
aI367
aI372
aI379
aI387
aI397
aI402
aI405
aI413
aI420
aI426
aI431
aI436
aI441
aI447
aI454
aI460
aI470
aI478
aI487
aI494
aI501
aI511
aI516
aI525
aI535
aI542
aI549
aI559
aI566
aI573
aI582
aI591
aI600
aI609
aI616
aI624
aI632
aI636
aI644
aI653
aI661
aI667
aI676
aI683
aI689
aI695
aI701
aI705
aI711
aI718
aI726
aI733
aI740
aI747
aI755
aI762
aI769
aI777
aI786
aI790
aI791
aI801
aI809
aI814
aI819
aI828
aI835
aI843
aI843
aI852
aI859
aI868
aI872
aI873
aI881
aI881
aI887
aI895
aI903
aI910
aI919
aI928
aI931
aI935
aI942
aI943
aI952
aI958
aI964
aI973
aI983
aI984
aI989
aI994
aI999
aI1005
aI1015
aI1024
aI1032
aI1039
aI1045
aI1051
aI1058
aI1062
aI1068
aI1077
aI1081
aI1090
aI1092
aI1100
aI1107
aI1115
aI1124
aI1129
aI1132
aI1137
aI1144
aI1150
aI1157
aI1161
aI1170
aI1176
aI1176
aI1183
aI1185
aI1189
aI1194
aI1198
aI1206
aI1212
aI1221
aI1229
aI1238
aI1242
aI1246
aI1254
aI1258
aI1258
aI1258
aI1258
aI1258
aI1258
aI1258
aI1258
aI1258
aI1258
aI1258
aI1258
aI1258
aI1258
aI1258
aI1258
aI1258
aI1258
aI1258
aI1258
aI1258
aI1258
aI1258
aI1258
aI1258
aI1258
aI1258
aI1258
aI1258
aI1258
aI1258
aI1258
aI1258
aI1258
aI1258
aI1258
aI1258
aI1258
aI1258
aI1258
aI1258
aI1258
aI1258
aI1258
aI1258
aI1258
aI1258
aI1258
aI1258
aI1258
aI1258
aI1258
aI1258
aI1258
aI1258
aI1258
aI1258
aI1258
aI1258
aI1258
aI1258
aI1258
aI1258
aI1258
aI1258
aI1258
aI1258
aI1258
aI1258
aI1258
aI1258
aI1258
aI1258
aI1258
aI1258
aI1258
aI1258
aI1258
aI1258
aI1258
aI1258
aI1258
aI1258
aI1258
aI1258
aI1258
aI1258
aI1258
aI1258
aI1258
aI1258
aI1258
aI1258
aI1258
aI1258
aI1258
aI1258
aI1258
aI1258
aI1258
aI1258
aI1258
aI1258
aI1258
aI1258
aI1258
aI1258
aI1258
aI1258
aI1258
aI1258
aI1258
aI1258
aI1258
aI1258
aI1258
aI1258
aI1258
aI1258
aI1258
aI1258
aI1258
aI1258
aI1258
aI1258
aI1258
aI1258
aI1258
aI1258
aI1258
aI1258
aI1258
aI1258
aI1258
aI1258
aI1258
aI1258
aI1258
aI1258
aI1258
aI1258
aI1258
aI1258
aI1258
aI1258
aI1258
aI1258
aI1258
aI1258
aI1258
aI1258
aI1258
aI1258
aI1258
aI1258
aI1258
aI1258
aI1258
aI1258
aI1258
aI1258
aI1258
aI1258
aI1258
aI1258
aI1258
aI1258
aI1258
aI1258
aI1258
aI1258
aI1258
aI1258
aI1258
aI1258
aI1258
aI1258
aI1258
aI1258
aI1258
aI1258
aI1258
aI1258
aI1258
aI1258
aI1258
aI1258
aI1258
aI1258
aI1258
aI1258
aI1258
aI1258
aI1258
aI1258
aI1258
aI1258
aI1258
aI1258
aI1258
aI1258
aI1258
aI1258
aI1258
aI1258
aI1258
aI1258
aI1258
aI1258
aI1258
aI1258
aI1258
aI1258
aI1258
aI1258
aI1258
aI1258
aI1258
aI1258
aI1258
aI1258
aI1258
aI1258
aI1258
aI1258
aI1258
aI1258
aI1258
aI1258
aI1258
aI1258
aI1258
aI1258
aI1258
aI1258
aI1258
aI1258
aI1258
aI1258
aI1258
aI1258
aI1258
aI1258
aI1258
aI1258
aI1258
aI1258
aI1258
aI1258
aI1258
aI1258
aI1258
aI1258
aI1258
aI1258
aI1258
aI1258
aI1258
aI1258
aI1258
aI1258
aI1258
aI1258
aI1258
aI1258
aI1258
aI1258
aI1258
aI1258
aI1258
aI1258
aI1258
aI1258
aI1258
aI1258
aI1258
aI1258
aI1258
aI1258
aI1258
aI1258
aI1258
aI1258
aI1258
aI1258
aI1258
aI1258
aI1258
aI1258
aI1258
aI1258
aI1258
aI1258
aI1258
aI1258
aI1258
aI1258
aI1258
aI1258
aI1258
aI1258
aI1258
aI1258
aI1258
aI1258
aI1258
aI1258
aI1258
aI1258
aI1258
aI1258
aI1258
aI1258
aI1258
aI1258
aI1258
aI1258
aI1258
aI1258
aI1258
aI1258
aI1258
aI1258
aI1258
aI1258
aI1258
aI1258
aI1258
aI1258
aI1258
aI1258
aI1258
aI1258
aI1258
aI1258
aI1258
aI1258
aI1258
aI1258
aI1258
aI1258
aI1258
aI1258
aI1258
aI1258
aI1258
aI1258
aI1258
aI1258
aI1258
aI1258
aI1258
aI1258
aI1258
aI1258
aI1258
aI1258
aI1258
aI1258
aI1258
aI1258
aI1258
aI1258
aI1258
aI1258
aI1258
aI1258
aI1258
aI1258
aI1258
aI1258
aI1258
aI1258
aI1258
aI1258
aI1258
aI1258
aI1258
aI1258
aI1258
aI1258
aI1258
aI1258
aI1258
aI1258
aI1258
aI1258
aI1258
aI1258
aI1258
aI1258
aI1258
aI1258
aI1258
aI1258
aI1258
aI1258
aI1258
aI1258
aI1258
aI1258
aI1258
aI1258
aI1258
aI1258
aI1258
aI1258
aI1258
aI1258
aI1258
aI1258
aI1258
aI1258
aI1258
aI1258
aI1258
aI1258
aI1258
aI1258
aI1258
aI1258
aI1258
aI1258
aI1258
aI1258
aI1258
aI1258
aI1258
aI1258
aI1258
aI1258
aI1258
aI1258
aI1258
aI1258
aI1258
aI1258
aI1258
aI1258
aI1258
aI1258
aI1258
aI1258
aI1258
aI1258
aI1258
aI1258
aI1258
aI1258
aI1258
aI1258
aI1258
aI1258
aI1258
aI1258
aI1258
aI1258
aI1258
aI1258
aI1258
aI1258
aI1258
aI1258
aI1258
aI1258
aI1258
aI1258
aI1258
aI1258
aI1258
aI1258
aI1258
aI1258
aI1258
aI1258
aI1258
aI1258
aI1258
aI1258
aI1258
aI1258
aI1258
aI1258
aI1258
aI1258
aI1258
aI1258
aI1258
aI1258
aI1258
aI1258
aI1258
aI1258
aI1258
aI1258
aI1258
aI1258
aI1258
aI1258
aI1258
aI1258
aI1258
aI1258
aI1258
aI1258
aI1258
aI1258
aI1258
aI1258
aI1258
aI1258
aI1258
aI1258
aI1258
aI1258
aI1258
aI1258
aI1258
aI1258
aI1258
aI1258
aI1258
aI1258
aI1258
aI1258
aI1258
aI1258
aI1258
aI1258
aI1258
aI1258
aI1258
aI1258
aI1258
aI1258
aI1258
aI1258
aI1258
aI1258
aI1258
aI1258
aI1258
aI1258
aI1258
aI1258
aI1258
aI1258
aI1258
aI1258
aI1258
aI1258
aI1258
aI1258
aI1258
aI1258
aI1258
aI1258
aI1258
aI1258
aI1258
aI1258
aI1258
aI1258
aI1258
aI1258
aI1258
aI1258
aI1258
aI1258
aI1258
aI1258
aI1258
aI1258
aI1258
aI1258
aI1258
aI1258
aI1258
aI1258
aI1258
aI1258
aI1258
aI1258
aI1258
aI1258
aI1258
aI1258
aI1258
aI1258
aI1258
aI1258
aI1258
aI1258
aI1258
aI1258
aI1258
aI1258
aI1258
aI1258
aI1258
aI1258
aI1258
aI1258
aI1258
aI1258
aI1258
aI1258
aI1258
aI1258
aI1258
aI1258
aI1258
aI1258
aI1258
aI1258
aI1258
aI1258
aI1258
aI1258
aI1258
aI1258
aI1258
aI1258
aI1258
aI1258
aI1258
aI1258
aI1258
aI1258
aI1258
aI1258
aI1258
aI1258
aI1258
aI1258
aI1258
aI1258
aI1258
aI1258
aI1258
aI1258
aI1258
aI1258
aI1258
aI1258
aI1258
aI1258
aI1258
aI1258
aI1258
aI1258
aI1258
aI1258
aI1258
aI1258
aI1258
aI1258
aI1258
aI1258
aI1258
aI1258
aI1258
aI1258
aI1258
aI1258
aI1258
aI1258
aI1258
aI1258
aI1258
aI1258
aI1258
aI1258
aI1258
aI1258
aI1258
aI1258
aI1258
aI1258
aI1258
aI1258
aI1258
aI1258
aI1258
aI1258
aI1258
aI1258
aI1258
aI1258
aI1258
aI1258
aI1258
aI1258
aI1258
aI1258
aI1258
aI1258
aI1258
aI1258
aI1258
aI1258
aI1258
aI1258
aI1258
aI1258
aI1258
aI1258
aI1258
aI1258
aI1258
aI1258
aI1258
aI1258
aI1258
aI1258
aI1259
aI1262
aI1264
aI1268
aI1271
aI1273
aI1277
aI1280
aI1283
aI1286
aI1290
aI1292
aI1296
aI1299
aI1302
aI1305
aI1309
aI1312
aI1314
aI1318
aI1321
aI1324
aI1327
aI1327
aI1330
aI1333
aI1337
aI1341
aI1344
aI1348
aI1351
aI1355
aI1360
aI1363
aI1367
aI1370
aI1378
aI1382
aI1384
aI1386
aI1389
aI1392
aI1394
aI1395
aI1397
aI1403
aI1411
aI1412
aI1412
aI1413
assS'true'
p14
(lp15
I1413
aI9452
as.