(dp0
S'active'
p1
(dp2
S'x'
p3
(lp4
I0
aI10
aI20
aI30
aI40
aI50
aI60
aI70
aI80
aI90
aI100
aI110
aI120
aI130
aI140
aI150
aI160
aI170
aI180
aI190
aI200
aI210
aI220
aI230
aI240
aI250
aI260
aI270
aI280
aI290
aI300
aI310
aI320
aI330
aI340
aI350
aI360
aI370
aI380
aI390
aI400
aI410
aI420
aI430
aI440
aI450
aI460
aI470
aI480
aI490
aI500
aI510
aI520
aI530
aI540
aI550
aI560
aI570
aI580
aI590
aI600
aI610
aI620
aI630
aI640
aI650
aI660
aI670
aI680
aI690
aI700
aI710
aI720
aI730
aI740
aI750
aI760
aI770
aI780
aI790
aI800
aI810
aI820
aI830
aI840
aI850
aI860
aI870
aI880
aI890
aI900
aI910
aI920
aI930
aI940
aI950
aI960
aI970
aI980
aI990
aI1000
aI1010
aI1020
aI1030
aI1040
aI1050
aI1060
aI1070
aI1080
aI1090
aI1100
aI1110
aI1120
aI1130
aI1140
aI1150
aI1160
aI1170
aI1180
aI1190
aI1200
aI1210
aI1220
aI1230
aI1240
aI1250
aI1260
aI1270
aI1280
aI1290
aI1300
aI1310
aI1320
aI1330
aI1340
aI1350
aI1360
aI1370
aI1380
aI1390
aI1400
aI1410
aI1420
aI1430
aI1440
aI1450
aI1460
aI1470
aI1480
aI1490
aI1500
aI1510
aI1520
aI1530
aI1540
aI1550
aI1560
aI1570
aI1580
aI1590
aI1600
aI1610
aI1620
aI1630
aI1640
aI1650
aI1660
aI1670
aI1680
aI1690
aI1700
aI1710
aI1720
aI1730
aI1740
aI1750
aI1760
aI1770
aI1780
aI1790
aI1800
aI1810
aI1820
aI1830
aI1840
aI1850
aI1860
aI1870
aI1880
aI1890
aI1900
aI1910
aI1920
aI1930
aI1940
aI1950
aI1960
aI1970
aI1980
aI1990
aI2000
aI2010
aI2020
aI2030
aI2040
aI2050
aI2060
aI2070
aI2080
aI2090
aI2100
aI2110
aI2120
aI2130
aI2140
aI2150
aI2160
aI2170
aI2180
aI2190
aI2200
aI2210
aI2220
aI2230
aI2240
aI2250
aI2260
aI2270
aI2280
aI2290
aI2300
aI2310
aI2320
aI2330
aI2340
aI2350
aI2360
aI2370
aI2380
aI2390
aI2400
aI2410
aI2420
aI2430
aI2440
aI2450
aI2460
aI2470
aI2480
aI2490
aI2500
aI2510
aI2520
aI2530
aI2540
aI2550
aI2560
aI2570
aI2580
aI2590
aI2600
aI2610
aI2620
aI2630
aI2640
aI2650
aI2660
aI2670
aI2680
aI2690
aI2700
aI2710
aI2720
aI2730
aI2740
aI2750
aI2760
aI2770
aI2780
aI2790
aI2800
aI2810
aI2820
aI2830
aI2840
aI2850
aI2860
aI2870
aI2880
aI2890
aI2900
aI2910
aI2920
aI2930
aI2940
aI2950
aI2960
aI2970
aI2980
aI2990
aI3000
aI3010
aI3020
aI3030
aI3040
aI3050
aI3060
aI3070
aI3080
aI3090
aI3100
aI3110
aI3120
aI3130
aI3140
aI3150
aI3160
aI3170
aI3180
aI3190
aI3200
aI3210
aI3220
aI3230
aI3240
aI3250
aI3260
aI3270
aI3280
aI3290
aI3300
aI3310
aI3320
aI3330
aI3340
aI3350
aI3360
aI3370
aI3380
aI3390
aI3400
aI3410
aI3420
aI3430
aI3440
aI3450
aI3460
aI3470
aI3480
aI3490
aI3500
aI3510
aI3520
aI3530
aI3540
aI3550
aI3560
aI3570
aI3580
aI3590
aI3600
aI3610
aI3620
aI3630
aI3640
aI3650
aI3660
aI3670
aI3680
aI3690
aI3700
aI3710
aI3720
aI3730
aI3740
aI3750
aI3760
aI3770
aI3780
aI3790
aI3800
aI3810
aI3820
aI3830
aI3840
aI3850
aI3860
aI3870
aI3880
aI3890
aI3900
aI3910
aI3920
aI3930
aI3940
aI3950
aI3960
aI3970
aI3980
aI3990
aI4000
aI4010
aI4020
aI4030
aI4040
aI4050
aI4060
aI4070
aI4080
aI4090
aI4100
aI4110
aI4120
aI4130
aI4140
aI4150
aI4160
aI4170
aI4180
aI4190
aI4200
aI4210
aI4220
aI4230
aI4240
aI4250
aI4260
aI4270
aI4280
aI4290
aI4300
aI4310
aI4320
aI4330
aI4340
aI4350
aI4360
aI4370
aI4380
aI4390
aI4400
aI4410
aI4420
aI4430
aI4440
aI4450
aI4460
aI4470
aI4480
aI4490
aI4500
aI4510
aI4520
aI4530
aI4540
aI4550
aI4560
aI4570
aI4580
aI4590
aI4600
aI4610
aI4620
aI4630
aI4640
aI4650
aI4660
aI4670
aI4680
aI4690
aI4700
aI4710
aI4720
aI4730
aI4740
aI4750
aI4760
aI4770
aI4780
aI4790
aI4800
aI4810
aI4820
aI4830
aI4840
aI4850
aI4860
aI4870
aI4880
aI4890
aI4900
aI4910
aI4920
aI4930
aI4940
aI4950
aI4960
aI4970
aI4980
aI4990
aI5000
aI5010
aI5020
aI5030
aI5040
aI5050
aI5060
aI5070
aI5080
aI5090
aI5100
aI5110
aI5120
aI5130
aI5140
aI5150
aI5160
aI5170
aI5180
aI5190
aI5200
aI5210
aI5220
aI5230
aI5240
aI5250
aI5260
aI5270
aI5280
aI5290
aI5300
aI5310
aI5320
aI5330
aI5340
aI5350
aI5360
aI5370
aI5380
aI5390
aI5400
aI5410
aI5420
aI5430
aI5440
aI5450
aI5460
aI5470
aI5480
aI5490
aI5500
aI5510
aI5520
aI5530
aI5540
aI5550
aI5560
aI5570
aI5580
aI5590
aI5600
aI5610
aI5620
aI5630
aI5640
aI5650
aI5660
aI5670
aI5680
aI5690
aI5700
aI5710
aI5720
aI5730
aI5740
aI5750
aI5760
aI5770
aI5780
aI5790
aI5800
aI5810
aI5820
aI5830
aI5840
aI5850
aI5860
aI5870
aI5880
aI5890
aI5900
aI5910
aI5920
aI5930
aI5940
aI5950
aI5960
aI5970
aI5980
aI5990
aI6000
aI6010
aI6020
aI6030
aI6040
aI6050
aI6060
aI6070
aI6080
aI6090
aI6100
aI6110
aI6120
aI6130
aI6140
aI6150
aI6160
aI6170
aI6180
aI6190
aI6200
aI6210
aI6220
aI6230
aI6240
aI6250
aI6260
aI6270
aI6280
aI6290
aI6300
asS'est'
p5
(lp6
I0
aI0
aI118
aI121
aI123
aI123
aI124
aI106
aI99
aI110
aI116
aI121
aI139
aI76
aI74
aI70
aI107
aI98
aI109
aI139
aI119
aI145
aI141
aI273
aI336
aI281
aI240
aI305
aI374
aI371
aI385
aI398
aI416
aI486
aI485
aI547
aI517
aI544
aI599
aI663
aI647
aI667
aI682
aI658
aI694
aI690
aI707
aI760
aI790
aI761
aI777
aI800
aI828
aI813
aI846
aI885
aI868
aI936
aI925
aI975
aI980
aI1000
aI1016
aI1043
aI1055
aI1042
aI1075
aI1114
aI1117
aI1144
aI1136
aI1136
aI1157
aI1184
aI1201
aI1236
aI1225
aI1226
aI1290
aI1264
aI1324
aI1334
aI1310
aI1332
aI1369
aI1361
aI1403
aI1410
aI1398
aI1456
aI1477
aI1500
aI1498
aI1501
aI1506
aI1559
aI1586
aI1589
aI1600
aI1656
aI1655
aI1637
aI1669
aI1692
aI1686
aI1743
aI1728
aI1735
aI1708
aI1791
aI1810
aI1783
aI1842
aI1839
aI1872
aI1918
aI1892
aI1960
aI1964
aI1966
aI1980
aI1972
aI1987
aI1988
aI2039
aI2047
aI2058
aI2098
aI2104
aI2097
aI2120
aI2143
aI2168
aI2180
aI2193
aI2207
aI2230
aI2218
aI2351
aI2360
aI2371
aI2381
aI2400
aI2423
aI2433
aI2434
aI2448
aI2456
aI2465
aI2476
aI2501
aI2512
aI2506
aI2508
aI2505
aI2498
aI2497
aI2512
aI2472
aI2485
aI2471
aI2368
aI2485
aI2482
aI2482
aI2364
aI2383
aI2356
aI2386
aI2388
aI2381
aI2385
aI2379
aI2378
aI2383
aI2343
aI2374
aI2346
aI2343
aI2332
aI2328
aI2317
aI2320
aI2240
aI2306
aI2232
aI2231
aI2229
aI2220
aI2221
aI2221
aI2218
aI2219
aI2184
aI2181
aI2181
aI2184
aI2175
aI2167
aI2171
aI2171
aI2112
aI2109
aI2113
aI2114
aI2102
aI2104
aI2104
aI2103
aI2100
aI2103
aI2093
aI2067
aI2032
aI2069
aI2032
aI2029
aI2022
aI2012
aI2021
aI2017
aI2016
aI2015
aI2013
aI2013
aI2004
aI1965
aI1956
aI1951
aI1951
aI1958
aI1950
aI1948
aI1945
aI1935
aI1895
aI1935
aI1936
aI1891
aI1897
aI1888
aI1883
aI1885
aI1883
aI1885
aI1874
aI1835
aI1838
aI1838
aI1836
aI1801
aI1823
aI1803
aI1796
aI1801
aI1794
aI1791
aI1793
aI1761
aI1784
aI1764
aI1760
aI1763
aI1761
aI1763
aI1752
aI1749
aI1733
aI1757
aI1747
aI1731
aI1731
aI1706
aI1728
aI1722
aI1710
aI1711
aI1706
aI1704
aI1689
aI1702
aI1688
aI1682
aI1682
aI1680
aI1681
aI1674
aI1672
aI1680
aI1675
aI1661
aI1658
aI1661
aI1654
aI1646
aI1645
aI1651
aI1641
aI1641
aI1626
aI1638
aI1617
aI1623
aI1625
aI1623
aI1623
aI1621
aI1620
aI1616
aI1616
aI1607
aI1604
aI1608
aI1595
aI1603
aI1599
aI1589
aI1583
aI1585
aI1581
aI1576
aI1579
aI1570
aI1570
aI1574
aI1565
aI1563
aI1555
aI1556
aI1553
aI1554
aI1548
aI1550
aI1550
aI1546
aI1544
aI1539
aI1541
aI1538
aI1526
aI1529
aI1531
aI1529
aI1527
aI1524
aI1520
aI1524
aI1513
aI1517
aI1519
aI1516
aI1511
aI1513
aI1512
aI1511
aI1507
aI1505
aI1499
aI1501
aI1507
aI1503
aI1491
aI1497
aI1492
aI1490
aI1491
aI1486
aI1490
aI1488
aI1486
aI1484
aI1484
aI1473
aI1481
aI1474
aI1479
aI1482
aI1473
aI1472
aI1470
aI1471
aI1473
aI1468
aI1469
aI1469
aI1465
aI1463
aI1467
aI1466
aI1464
aI1462
aI1464
aI1462
aI1457
aI1456
aI1457
aI1457
aI1454
aI1455
aI1453
aI1450
aI1451
aI1448
aI1449
aI1452
aI1445
aI1442
aI1444
aI1443
aI1444
aI1441
aI1441
aI1442
aI1437
aI1436
aI1437
aI1439
aI1434
aI1437
aI1434
aI1433
aI1433
aI1431
aI1431
aI1425
aI1427
aI1428
aI1427
aI1428
aI1425
aI1426
aI1426
aI1421
aI1426
aI1422
aI1423
aI1419
aI1419
aI1419
aI1418
aI1417
aI1419
aI1415
aI1415
aI1413
aI1415
aI1413
aI1412
aI1408
aI1410
aI1411
aI1410
aI1409
aI1407
aI1407
aI1406
aI1405
aI1407
aI1404
aI1403
aI1403
aI1402
aI1402
aI1401
aI1400
aI1399
aI1396
aI1400
aI1397
aI1397
aI1397
aI1397
aI1397
aI1395
aI1394
aI1393
aI1404
aI1423
aI1430
aI1437
aI1445
aI1452
aI1458
aI1463
aI1462
aI1462
aI1469
aI1466
aI1465
aI1463
aI1461
aI1460
aI1460
aI1458
aI1458
aI1456
aI1456
aI1456
aI1456
aI1455
aI1456
aI1456
aI1455
aI1455
aI1454
aI1454
aI1454
aI1455
aI1454
aI1453
aI1453
aI1452
aI1452
aI1452
aI1451
aI1451
aI1451
aI1451
aI1450
aI1449
aI1449
aI1449
aI1449
aI1448
aI1448
aI1448
aI1447
aI1447
aI1446
aI1446
aI1446
aI1446
aI1446
aI1445
aI1445
aI1444
aI1444
aI1444
aI1443
aI1443
aI1443
aI1443
aI1443
aI1443
aI1443
aI1443
aI1444
aI1446
aI1446
aI1448
aI1443
aI1443
aI1442
aI1443
aI1444
aI1445
aI1448
aI1449
aI1451
aI1447
aI1448
aI1450
aI1450
aI1458
aI1463
aI1462
aI1468
aI1467
aI1465
aI1458
aI1457
aI1455
aI1462
aI1464
aI1469
aI1460
aI1461
aI1458
aI1456
aI1455
aI1459
aI1463
aI1464
aI1462
aI1463
aI1463
aI1466
aI1464
aI1462
aI1466
aI1471
aI1471
aI1470
aI1470
aI1470
aI1469
aI1468
aI1462
aI1466
aI1468
aI1479
aI1475
aI1478
aI1471
aI1470
aI1469
aI1464
aI1459
aI1460
aI1460
aI1461
aI1457
aI1457
aI1454
aI1454
aI1455
aI1458
aI1460
aI1459
aI1461
aI1462
aI1460
aI1458
aI1459
aI1458
aI1456
aI1455
aI1459
aI1464
aI1459
aI1455
asS'pos'
p7
(lp8
I0
aI1
aI1
aI1
aI1
aI1
aI6
aI12
aI22
aI26
aI28
aI28
aI30
aI31
aI34
aI44
aI54
aI64
aI71
aI77
aI87
aI95
aI103
aI111
aI121
aI130
aI134
aI140
aI149
aI156
aI164
aI171
aI179
aI186
aI195
aI204
aI212
aI217
aI226
aI234
aI242
aI250
aI260
aI270
aI278
aI288
aI295
aI301
aI311
aI321
aI329
aI336
aI345
aI354
aI363
aI372
aI382
aI390
aI400
aI409
aI418
aI425
aI434
aI443
aI453
aI463
aI473
aI479
aI482
aI492
aI500
aI507
aI517
aI526
aI536
aI544
aI552
aI561
aI569
aI579
aI589
aI597
aI602
aI611
aI619
aI628
aI638
aI647
aI657
aI666
aI676
aI685
aI692
aI702
aI710
aI718
aI726
aI736
aI745
aI754
aI764
aI774
aI783
aI793
aI802
aI809
aI819
aI826
aI836
aI844
aI852
aI862
aI871
aI881
aI890
aI899
aI907
aI915
aI922
aI931
aI939
aI949
aI959
aI968
aI977
aI986
aI995
aI1004
aI1014
aI1023
aI1033
aI1040
aI1050
aI1060
aI1069
aI1079
aI1087
aI1096
aI1105
aI1115
aI1122
aI1132
aI1142
aI1152
aI1161
aI1171
aI1181
aI1190
aI1200
aI1209
aI1216
aI1221
aI1225
aI1225
aI1227
aI1228
aI1231
aI1232
aI1236
aI1239
aI1241
aI1242
aI1244
aI1253
aI1255
aI1257
aI1258
aI1259
aI1261
aI1261
aI1262
aI1267
aI1267
aI1268
aI1272
aI1273
aI1273
aI1273
aI1273
aI1273
aI1273
aI1273
aI1273
aI1274
aI1274
aI1274
aI1275
aI1275
aI1275
aI1275
aI1275
aI1275
aI1275
aI1276
aI1276
aI1276
aI1276
aI1276
aI1277
aI1281
aI1282
aI1282
aI1284
aI1287
aI1288
aI1290
aI1291
aI1292
aI1293
aI1293
aI1294
aI1296
aI1297
aI1298
aI1298
aI1298
aI1298
aI1298
aI1298
aI1300
aI1300
aI1300
aI1301
aI1303
aI1303
aI1303
aI1303
aI1305
aI1305
aI1306
aI1306
aI1306
aI1306
aI1306
aI1307
aI1308
aI1308
aI1308
aI1309
aI1309
aI1309
aI1309
aI1309
aI1309
aI1309
aI1309
aI1309
aI1309
aI1309
aI1309
aI1309
aI1309
aI1309
aI1309
aI1310
aI1310
aI1310
aI1311
aI1311
aI1315
aI1315
aI1315
aI1316
aI1316
aI1317
aI1317
aI1317
aI1317
aI1319
aI1320
aI1320
aI1320
aI1320
aI1320
aI1321
aI1321
aI1322
aI1322
aI1323
aI1323
aI1324
aI1324
aI1324
aI1324
aI1324
aI1324
aI1324
aI1325
aI1325
aI1325
aI1325
aI1325
aI1325
aI1326
aI1326
aI1326
aI1327
aI1328
aI1328
aI1328
aI1328
aI1329
aI1330
aI1330
aI1330
aI1330
aI1330
aI1330
aI1330
aI1330
aI1330
aI1330
aI1330
aI1330
aI1330
aI1330
aI1330
aI1330
aI1330
aI1330
aI1330
aI1330
aI1330
aI1330
aI1330
aI1330
aI1330
aI1330
aI1330
aI1330
aI1330
aI1330
aI1330
aI1330
aI1330
aI1330
aI1330
aI1330
aI1330
aI1330
aI1330
aI1330
aI1330
aI1330
aI1330
aI1330
aI1330
aI1330
aI1331
aI1331
aI1331
aI1331
aI1331
aI1331
aI1331
aI1331
aI1331
aI1331
aI1331
aI1331
aI1331
aI1331
aI1331
aI1331
aI1331
aI1331
aI1331
aI1331
aI1331
aI1331
aI1331
aI1331
aI1331
aI1331
aI1331
aI1331
aI1331
aI1331
aI1331
aI1331
aI1332
aI1332
aI1332
aI1332
aI1332
aI1332
aI1332
aI1332
aI1332
aI1332
aI1335
aI1335
aI1335
aI1335
aI1336
aI1336
aI1336
aI1336
aI1336
aI1336
aI1336
aI1336
aI1336
aI1336
aI1336
aI1336
aI1337
aI1337
aI1337
aI1337
aI1337
aI1337
aI1337
aI1337
aI1337
aI1337
aI1337
aI1337
aI1337
aI1337
aI1337
aI1337
aI1337
aI1337
aI1337
aI1337
aI1337
aI1337
aI1337
aI1337
aI1337
aI1337
aI1337
aI1337
aI1337
aI1337
aI1337
aI1337
aI1337
aI1337
aI1337
aI1337
aI1337
aI1337
aI1337
aI1337
aI1337
aI1337
aI1337
aI1337
aI1337
aI1337
aI1337
aI1337
aI1337
aI1337
aI1337
aI1337
aI1337
aI1337
aI1337
aI1337
aI1337
aI1337
aI1337
aI1337
aI1337
aI1337
aI1337
aI1337
aI1337
aI1337
aI1337
aI1337
aI1337
aI1339
aI1349
aI1359
aI1369
aI1379
aI1389
aI1398
aI1405
aI1405
aI1405
aI1409
aI1409
aI1409
aI1409
aI1409
aI1409
aI1409
aI1409
aI1409
aI1409
aI1409
aI1409
aI1409
aI1409
aI1410
aI1410
aI1410
aI1410
aI1410
aI1410
aI1410
aI1410
aI1410
aI1410
aI1410
aI1410
aI1410
aI1410
aI1410
aI1410
aI1410
aI1410
aI1410
aI1410
aI1410
aI1410
aI1410
aI1410
aI1410
aI1410
aI1410
aI1410
aI1410
aI1410
aI1410
aI1410
aI1410
aI1410
aI1410
aI1410
aI1410
aI1410
aI1410
aI1410
aI1410
aI1410
aI1411
aI1411
aI1412
aI1412
aI1412
aI1412
aI1412
aI1412
aI1412
aI1412
aI1412
aI1412
aI1412
aI1412
aI1412
aI1412
aI1412
aI1412
aI1412
aI1412
aI1412
aI1412
aI1412
aI1412
aI1412
aI1412
aI1412
aI1412
aI1412
aI1412
aI1412
aI1412
aI1412
aI1412
aI1412
aI1412
aI1412
aI1412
aI1412
aI1412
aI1412
aI1412
aI1412
aI1412
aI1412
aI1412
aI1412
aI1412
aI1412
aI1412
aI1412
aI1412
aI1412
aI1412
aI1412
aI1412
aI1412
aI1412
aI1412
aI1412
aI1412
aI1412
aI1412
aI1412
aI1412
aI1412
aI1412
aI1412
aI1412
aI1412
aI1412
aI1412
aI1412
aI1412
aI1412
aI1412
aI1412
aI1412
aI1412
aI1412
aI1412
aI1412
aI1412
aI1412
aI1412
aI1412
aI1412
aI1412
aI1412
aI1413
assS'supervised'
p9
(dp10
g3
(lp11
I0
aI10
aI20
aI30
aI40
aI50
aI60
aI70
aI80
aI90
aI100
aI110
aI120
aI130
aI140
aI150
aI160
aI170
aI180
aI190
aI200
aI210
aI220
aI230
aI240
aI250
aI260
aI270
aI280
aI290
aI300
aI310
aI320
aI330
aI340
aI350
aI360
aI370
aI380
aI390
aI400
aI410
aI420
aI430
aI440
aI450
aI460
aI470
aI480
aI490
aI500
aI510
aI520
aI530
aI540
aI550
aI560
aI570
aI580
aI590
aI600
aI610
aI620
aI630
aI640
aI650
aI660
aI670
aI680
aI690
aI700
aI710
aI720
aI730
aI740
aI750
aI760
aI770
aI780
aI790
aI800
aI810
aI820
aI830
aI840
aI850
aI860
aI870
aI880
aI890
aI900
aI910
aI920
aI930
aI940
aI950
aI960
aI970
aI980
aI990
aI1000
aI1010
aI1020
aI1030
aI1040
aI1050
aI1060
aI1070
aI1080
aI1090
aI1100
aI1110
aI1120
aI1130
aI1140
aI1150
aI1160
aI1170
aI1180
aI1190
aI1200
aI1210
aI1220
aI1230
aI1240
aI1250
aI1260
aI1270
aI1280
aI1290
aI1300
aI1310
aI1320
aI1330
aI1340
aI1350
aI1360
aI1370
aI1380
aI1390
aI1400
aI1410
aI1420
aI1430
aI1440
aI1450
aI1460
aI1470
aI1480
aI1490
aI1500
aI1510
aI1520
aI1530
aI1540
aI1550
aI1560
aI1570
aI1580
aI1590
aI1600
aI1610
aI1620
aI1630
aI1640
aI1650
aI1660
aI1670
aI1680
aI1690
aI1700
aI1710
aI1720
aI1730
aI1740
aI1750
aI1760
aI1770
aI1780
aI1790
aI1800
aI1810
aI1820
aI1830
aI1840
aI1850
aI1860
aI1870
aI1880
aI1890
aI1900
aI1910
aI1920
aI1930
aI1940
aI1950
aI1960
aI1970
aI1980
aI1990
aI2000
aI2010
aI2020
aI2030
aI2040
aI2050
aI2060
aI2070
aI2080
aI2090
aI2100
aI2110
aI2120
aI2130
aI2140
aI2150
aI2160
aI2170
aI2180
aI2190
aI2200
aI2210
aI2220
aI2230
aI2240
aI2250
aI2260
aI2270
aI2280
aI2290
aI2300
aI2310
aI2320
aI2330
aI2340
aI2350
aI2360
aI2370
aI2380
aI2390
aI2400
aI2410
aI2420
aI2430
aI2440
aI2450
aI2460
aI2470
aI2480
aI2490
aI2500
aI2510
aI2520
aI2530
aI2540
aI2550
aI2560
aI2570
aI2580
aI2590
aI2600
aI2610
aI2620
aI2630
aI2640
aI2650
aI2660
aI2670
aI2680
aI2690
aI2700
aI2710
aI2720
aI2730
aI2740
aI2750
aI2760
aI2770
aI2780
aI2790
aI2800
aI2810
aI2820
aI2830
aI2840
aI2850
aI2860
aI2870
aI2880
aI2890
aI2900
aI2910
aI2920
aI2930
aI2940
aI2950
aI2960
aI2970
aI2980
aI2990
aI3000
aI3010
aI3020
aI3030
aI3040
aI3050
aI3060
aI3070
aI3080
aI3090
aI3100
aI3110
aI3120
aI3130
aI3140
aI3150
aI3160
aI3170
aI3180
aI3190
aI3200
aI3210
aI3220
aI3230
aI3240
aI3250
aI3260
aI3270
aI3280
aI3290
aI3300
aI3310
aI3320
aI3330
aI3340
aI3350
aI3360
aI3370
aI3380
aI3390
aI3400
aI3410
aI3420
aI3430
aI3440
aI3450
aI3460
aI3470
aI3480
aI3490
aI3500
aI3510
aI3520
aI3530
aI3540
aI3550
aI3560
aI3570
aI3580
aI3590
aI3600
aI3610
aI3620
aI3630
aI3640
aI3650
aI3660
aI3670
aI3680
aI3690
aI3700
aI3710
aI3720
aI3730
aI3740
aI3750
aI3760
aI3770
aI3780
aI3790
aI3800
aI3810
aI3820
aI3830
aI3840
aI3850
aI3860
aI3870
aI3880
aI3890
aI3900
aI3910
aI3920
aI3930
aI3940
aI3950
aI3960
aI3970
aI3980
aI3990
aI4000
aI4010
aI4020
aI4030
aI4040
aI4050
aI4060
aI4070
aI4080
aI4090
aI4100
aI4110
aI4120
aI4130
aI4140
aI4150
aI4160
aI4170
aI4180
aI4190
aI4200
aI4210
aI4220
aI4230
aI4240
aI4250
aI4260
aI4270
aI4280
aI4290
aI4300
aI4310
aI4320
aI4330
aI4340
aI4350
aI4360
aI4370
aI4380
aI4390
aI4400
aI4410
aI4420
aI4430
aI4440
aI4450
aI4460
aI4470
aI4480
aI4490
aI4500
aI4510
aI4520
aI4530
aI4540
aI4550
aI4560
aI4570
aI4580
aI4590
aI4600
aI4610
aI4620
aI4630
aI4640
aI4650
aI4660
aI4670
aI4680
aI4690
aI4700
aI4710
aI4720
aI4730
aI4740
aI4750
aI4760
aI4770
aI4780
aI4790
aI4800
aI4810
aI4820
aI4830
aI4840
aI4850
aI4860
aI4870
aI4880
aI4890
aI4900
aI4910
aI4920
aI4930
aI4940
aI4950
aI4960
aI4970
aI4980
aI4990
aI5000
aI5010
aI5020
aI5030
aI5040
aI5050
aI5060
aI5070
aI5080
aI5090
aI5100
aI5110
aI5120
aI5130
aI5140
aI5150
aI5160
aI5170
aI5180
aI5190
aI5200
aI5210
aI5220
aI5230
aI5240
aI5250
aI5260
aI5270
aI5280
aI5290
aI5300
aI5310
aI5320
aI5330
aI5340
aI5350
aI5360
aI5370
aI5380
aI5390
aI5400
aI5410
aI5420
aI5430
aI5440
aI5450
aI5460
aI5470
aI5480
aI5490
aI5500
aI5510
aI5520
aI5530
aI5540
aI5550
aI5560
aI5570
aI5580
aI5590
aI5600
aI5610
aI5620
aI5630
aI5640
aI5650
aI5660
aI5670
aI5680
aI5690
aI5700
aI5710
aI5720
aI5730
aI5740
aI5750
aI5760
aI5770
aI5780
aI5790
aI5800
aI5810
aI5820
aI5830
aI5840
aI5850
aI5860
aI5870
aI5880
aI5890
aI5900
aI5910
aI5920
aI5930
aI5940
aI5950
aI5960
aI5970
aI5980
aI5990
aI6000
aI6010
aI6020
aI6030
aI6040
aI6050
aI6060
aI6070
aI6080
aI6090
aI6100
aI6110
aI6120
aI6130
aI6140
aI6150
aI6160
aI6170
aI6180
aI6190
aI6200
aI6210
aI6220
aI6230
aI6240
aI6250
aI6260
aI6270
aI6280
aI6290
aI6300
aI6310
aI6320
aI6330
aI6340
aI6350
aI6360
aI6370
aI6380
aI6390
aI6400
aI6410
aI6420
aI6430
aI6440
aI6450
aI6460
aI6470
aI6480
aI6490
aI6500
aI6510
aI6520
aI6530
aI6540
aI6550
aI6560
aI6570
aI6580
aI6590
aI6600
aI6610
aI6620
aI6630
aI6640
aI6650
aI6660
aI6670
aI6680
aI6690
aI6700
aI6710
aI6720
aI6730
aI6740
aI6750
aI6760
aI6770
aI6780
aI6790
aI6800
aI6810
aI6820
aI6830
aI6840
aI6850
aI6860
aI6870
aI6880
aI6890
aI6900
aI6910
aI6920
aI6930
aI6940
aI6950
aI6960
aI6970
aI6980
aI6990
aI7000
aI7010
aI7020
aI7030
aI7040
aI7050
aI7060
aI7070
aI7080
aI7090
aI7100
aI7110
aI7120
aI7130
aI7140
aI7150
aI7160
aI7170
aI7180
aI7190
aI7200
aI7210
aI7220
aI7230
aI7240
aI7250
aI7260
aI7270
aI7280
aI7290
aI7300
aI7310
aI7320
aI7330
aI7340
aI7350
aI7360
aI7370
aI7380
aI7390
aI7400
aI7410
aI7420
aI7430
aI7440
aI7450
aI7460
aI7470
aI7480
aI7490
aI7500
aI7510
aI7520
aI7530
aI7540
aI7550
aI7560
aI7570
aI7580
aI7590
aI7600
aI7610
aI7620
aI7630
aI7640
aI7650
aI7660
aI7670
aI7680
aI7690
aI7700
aI7710
aI7720
aI7730
aI7740
aI7750
aI7760
aI7770
aI7780
aI7790
aI7800
aI7810
aI7820
aI7830
aI7840
aI7850
aI7860
aI7870
aI7880
aI7890
aI7900
aI7910
aI7920
aI7930
aI7940
aI7950
aI7960
aI7970
aI7980
aI7990
aI8000
aI8010
aI8020
aI8030
aI8040
aI8050
aI8060
aI8070
aI8080
aI8090
aI8100
aI8110
aI8120
aI8130
aI8140
aI8150
aI8160
aI8170
aI8180
aI8190
aI8200
aI8210
aI8220
aI8230
aI8240
aI8250
aI8260
aI8270
aI8280
aI8290
aI8300
aI8310
aI8320
aI8330
aI8340
aI8350
aI8360
aI8370
aI8380
aI8390
aI8400
aI8410
aI8420
aI8430
aI8440
aI8450
aI8460
aI8470
aI8480
aI8490
aI8500
aI8510
aI8520
aI8530
aI8540
aI8550
aI8560
aI8570
aI8580
aI8590
aI8600
aI8610
aI8620
aI8630
aI8640
aI8650
aI8660
aI8670
aI8680
aI8690
aI8700
aI8710
aI8720
aI8730
aI8740
aI8750
aI8760
aI8770
aI8780
aI8790
aI8800
aI8810
aI8820
aI8830
aI8840
aI8850
aI8860
aI8870
aI8880
aI8890
aI8900
aI8910
aI8920
aI8930
aI8940
aI8950
aI8960
aI8970
aI8980
aI8990
aI9000
aI9010
aI9020
aI9030
aI9040
aI9050
aI9060
aI9070
asg5
(lp12
I741
aI741
aI739
aI735
aI732
aI729
aI735
aI740
aI743
aI746
aI751
aI756
aI760
aI760
aI763
aI763
aI765
aI768
aI772
aI778
aI782
aI783
aI784
aI787
aI786
aI790
aI796
aI802
aI807
aI810
aI816
aI821
aI824
aI830
aI836
aI843
aI848
aI851
aI857
aI860
aI866
aI870
aI872
aI878
aI881
aI885
aI889
aI893
aI894
aI898
aI902
aI908
aI912
aI913
aI915
aI919
aI922
aI924
aI926
aI931
aI934
aI938
aI943
aI949
aI954
aI961
aI965
aI968
aI972
aI974
aI977
aI979
aI982
aI986
aI988
aI990
aI990
aI995
aI1001
aI1006
aI1009
aI1013
aI1017
aI1022
aI1025
aI1028
aI1032
aI1037
aI1043
aI1048
aI1049
aI1050
aI1053
aI1057
aI1059
aI1062
aI1068
aI1071
aI1076
aI1080
aI1082
aI1080
aI1083
aI1085
aI1090
aI1093
aI1099
aI1105
aI1108
aI1111
aI1116
aI1120
aI1124
aI1130
aI1137
aI1137
aI1139
aI1138
aI1141
aI1146
aI1150
aI1155
aI1158
aI1163
aI1167
aI1171
aI1176
aI1183
aI1184
aI1186
aI1189
aI1194
aI1192
aI1199
aI1204
aI1209
aI1208
aI1213
aI1213
aI1215
aI1217
aI1220
aI1224
aI1226
aI1227
aI1231
aI1233
aI1235
aI1237
aI1244
aI1249
aI1256
aI1259
aI1264
aI1270
aI1275
aI1280
aI1286
aI1288
aI1290
aI1288
aI1288
aI1291
aI1291
aI1296
aI1304
aI1307
aI1308
aI1309
aI1312
aI1312
aI1310
aI1314
aI1317
aI1323
aI1330
aI1329
aI1331
aI1334
aI1334
aI1335
aI1335
aI1335
aI1337
aI1337
aI1338
aI1337
aI1336
aI1337
aI1339
aI1338
aI1341
aI1342
aI1341
aI1340
aI1341
aI1340
aI1343
aI1343
aI1344
aI1343
aI1342
aI1342
aI1342
aI1344
aI1346
aI1347
aI1348
aI1353
aI1364
aI1373
aI1383
aI1393
aI1404
aI1414
aI1421
aI1421
aI1422
aI1426
aI1426
aI1426
aI1425
aI1426
aI1425
aI1425
aI1425
aI1426
aI1426
aI1426
aI1426
aI1425
aI1427
aI1427
aI1426
aI1428
aI1427
aI1428
aI1428
aI1427
aI1427
aI1427
aI1426
aI1427
aI1427
aI1427
aI1428
aI1428
aI1427
aI1427
aI1427
aI1426
aI1426
aI1426
aI1425
aI1425
aI1425
aI1427
aI1427
aI1427
aI1427
aI1426
aI1426
aI1426
aI1426
aI1425
aI1426
aI1426
aI1426
aI1425
aI1425
aI1425
aI1424
aI1424
aI1425
aI1425
aI1425
aI1425
aI1425
aI1425
aI1427
aI1428
aI1430
aI1429
aI1429
aI1429
aI1429
aI1428
aI1428
aI1428
aI1428
aI1428
aI1428
aI1428
aI1428
aI1428
aI1428
aI1427
aI1427
aI1429
aI1429
aI1429
aI1429
aI1428
aI1428
aI1428
aI1428
aI1428
aI1427
aI1427
aI1427
aI1427
aI1427
aI1427
aI1426
aI1426
aI1426
aI1426
aI1426
aI1425
aI1425
aI1425
aI1425
aI1425
aI1425
aI1425
aI1425
aI1425
aI1425
aI1425
aI1425
aI1424
aI1424
aI1424
aI1424
aI1424
aI1424
aI1423
aI1423
aI1424
aI1425
aI1425
aI1425
aI1426
aI1426
aI1425
aI1425
aI1425
aI1425
aI1425
aI1427
aI1429
aI1429
aI1428
aI1428
aI1428
aI1428
aI1428
aI1428
aI1427
aI1427
aI1427
aI1427
aI1427
aI1427
aI1427
aI1427
aI1426
aI1426
aI1426
aI1426
aI1426
aI1426
aI1426
aI1425
aI1425
aI1425
aI1425
aI1425
aI1425
aI1425
aI1424
aI1424
aI1425
aI1425
aI1425
aI1425
aI1425
aI1425
aI1425
aI1424
aI1424
aI1424
aI1424
aI1424
aI1424
aI1424
aI1423
aI1423
aI1423
aI1423
aI1423
aI1424
aI1424
aI1424
aI1423
aI1423
aI1423
aI1423
aI1423
aI1423
aI1423
aI1424
aI1424
aI1423
aI1423
aI1423
aI1423
aI1423
aI1423
aI1423
aI1423
aI1423
aI1422
aI1422
aI1422
aI1422
aI1422
aI1422
aI1422
aI1422
aI1422
aI1421
aI1421
aI1421
aI1421
aI1421
aI1421
aI1421
aI1421
aI1421
aI1420
aI1420
aI1420
aI1420
aI1420
aI1420
aI1420
aI1420
aI1420
aI1420
aI1419
aI1419
aI1419
aI1419
aI1419
aI1419
aI1419
aI1419
aI1419
aI1418
aI1418
aI1419
aI1419
aI1419
aI1419
aI1419
aI1419
aI1419
aI1419
aI1419
aI1419
aI1418
aI1418
aI1418
aI1418
aI1418
aI1418
aI1418
aI1418
aI1418
aI1418
aI1418
aI1418
aI1417
aI1417
aI1417
aI1417
aI1417
aI1417
aI1417
aI1417
aI1418
aI1418
aI1418
aI1418
aI1418
aI1417
aI1417
aI1417
aI1417
aI1417
aI1417
aI1417
aI1417
aI1417
aI1417
aI1417
aI1419
aI1419
aI1419
aI1419
aI1419
aI1418
aI1418
aI1418
aI1418
aI1418
aI1418
aI1418
aI1418
aI1418
aI1418
aI1418
aI1418
aI1418
aI1418
aI1418
aI1417
aI1417
aI1417
aI1417
aI1417
aI1417
aI1417
aI1417
aI1417
aI1417
aI1417
aI1417
aI1417
aI1417
aI1417
aI1417
aI1416
aI1416
aI1416
aI1416
aI1416
aI1416
aI1416
aI1416
aI1416
aI1416
aI1416
aI1416
aI1416
aI1416
aI1416
aI1416
aI1416
aI1416
aI1416
aI1415
aI1415
aI1415
aI1415
aI1415
aI1415
aI1415
aI1415
aI1415
aI1415
aI1415
aI1415
aI1415
aI1415
aI1415
aI1415
aI1415
aI1415
aI1415
aI1415
aI1415
aI1414
aI1414
aI1414
aI1414
aI1414
aI1414
aI1414
aI1414
aI1414
aI1414
aI1414
aI1414
aI1414
aI1414
aI1414
aI1414
aI1414
aI1414
aI1414
aI1414
aI1414
aI1414
aI1414
aI1413
aI1413
aI1413
aI1413
aI1413
aI1413
aI1413
aI1413
aI1413
aI1413
aI1413
aI1413
aI1413
aI1413
aI1413
aI1413
aI1413
aI1413
aI1413
aI1413
aI1413
aI1413
aI1413
aI1412
aI1412
aI1412
aI1412
aI1412
aI1412
aI1412
aI1412
aI1412
aI1412
aI1412
aI1412
aI1412
aI1412
aI1412
aI1412
aI1412
aI1412
aI1412
aI1412
aI1412
aI1412
aI1412
aI1412
aI1412
aI1412
aI1411
aI1411
aI1411
aI1411
aI1411
aI1411
aI1411
aI1411
aI1411
aI1411
aI1411
aI1411
aI1411
aI1411
aI1411
aI1411
aI1411
aI1411
aI1411
aI1411
aI1411
aI1411
aI1411
aI1411
aI1411
aI1411
aI1411
aI1410
aI1410
aI1410
aI1410
aI1410
aI1410
aI1410
aI1410
aI1410
aI1410
aI1410
aI1410
aI1410
aI1410
aI1410
aI1410
aI1411
aI1411
aI1411
aI1411
aI1411
aI1411
aI1411
aI1411
aI1411
aI1411
aI1411
aI1411
aI1411
aI1410
aI1410
aI1410
aI1410
aI1410
aI1410
aI1410
aI1410
aI1410
aI1410
aI1410
aI1410
aI1410
aI1410
aI1410
aI1410
aI1410
aI1410
aI1410
aI1410
aI1410
aI1410
aI1410
aI1410
aI1410
aI1410
aI1410
aI1410
aI1410
aI1410
aI1410
aI1410
aI1410
aI1410
aI1410
aI1409
aI1409
aI1409
aI1409
aI1409
aI1409
aI1409
aI1409
aI1409
aI1409
aI1409
aI1409
aI1410
aI1410
aI1410
aI1410
aI1410
aI1410
aI1410
aI1410
aI1410
aI1410
aI1410
aI1410
aI1410
aI1410
aI1410
aI1410
aI1410
aI1410
aI1410
aI1410
aI1410
aI1410
aI1410
aI1410
aI1410
aI1410
aI1410
aI1410
aI1410
aI1410
aI1410
aI1409
aI1409
aI1409
aI1409
aI1409
aI1409
aI1409
aI1409
aI1409
aI1409
aI1409
aI1409
aI1409
aI1409
aI1409
aI1409
aI1409
aI1409
aI1409
aI1409
aI1409
aI1409
aI1409
aI1409
aI1409
aI1409
aI1409
aI1409
aI1409
aI1409
aI1409
aI1409
aI1409
aI1409
aI1410
aI1410
aI1410
aI1410
aI1410
aI1410
aI1410
aI1410
aI1410
aI1410
aI1410
aI1410
aI1410
aI1410
aI1410
aI1410
aI1410
aI1409
aI1409
aI1409
aI1409
aI1409
aI1409
aI1409
aI1409
aI1409
aI1409
aI1410
aI1410
aI1410
aI1410
aI1410
aI1410
aI1410
aI1410
aI1410
aI1410
aI1410
aI1410
aI1410
aI1410
aI1410
aI1410
aI1410
aI1410
aI1410
aI1410
aI1410
aI1410
aI1410
aI1410
aI1410
aI1410
aI1410
aI1411
aI1411
aI1411
aI1411
aI1411
aI1412
aI1412
aI1412
aI1412
aI1412
aI1412
aI1412
aI1412
aI1412
aI1412
aI1412
aI1412
aI1412
aI1412
aI1412
aI1412
aI1412
aI1412
aI1412
aI1412
aI1412
aI1412
aI1412
aI1412
aI1412
aI1412
asg7
(lp13
I0
aI3
aI4
aI7
aI9
aI19
aI29
aI37
aI45
aI54
aI62
aI70
aI75
aI83
aI88
aI94
aI103
aI111
aI121
aI130
aI136
aI142
aI150
aI154
aI163
aI173
aI183
aI193
aI201
aI211
aI221
aI229
aI239
aI249
aI258
aI268
aI276
aI286
aI295
aI305
aI313
aI321
aI331
aI339
aI348
aI356
aI365
aI371
aI379
aI387
aI397
aI405
aI411
aI418
aI427
aI435
aI442
aI448
aI458
aI466
aI475
aI485
aI495
aI505
aI515
aI524
aI532
aI540
aI547
aI555
aI562
aI569
aI578
aI585
aI592
aI597
aI607
aI617
aI627
aI635
aI643
aI652
aI662
aI670
aI677
aI686
aI695
aI705
aI714
aI720
aI726
aI734
aI742
aI749
aI757
aI767
aI775
aI785
aI793
aI800
aI803
aI811
aI818
aI827
aI835
aI845
aI855
aI863
aI871
aI880
aI889
aI897
aI907
aI917
aI922
aI929
aI933
aI940
aI948
aI955
aI963
aI969
aI977
aI984
aI991
aI999
aI1009
aI1013
aI1018
aI1025
aI1032
aI1034
aI1043
aI1051
aI1059
aI1062
aI1069
aI1072
aI1076
aI1081
aI1086
aI1092
aI1096
aI1100
aI1106
aI1110
aI1115
aI1119
aI1127
aI1134
aI1142
aI1147
aI1154
aI1161
aI1167
aI1174
aI1181
aI1185
aI1188
aI1188
aI1190
aI1194
aI1195
aI1202
aI1210
aI1215
aI1217
aI1219
aI1223
aI1224
aI1224
aI1228
aI1232
aI1239
aI1246
aI1247
aI1249
aI1253
aI1254
aI1256
aI1257
aI1258
aI1261
aI1262
aI1263
aI1263
aI1263
aI1265
aI1267
aI1267
aI1271
aI1272
aI1272
aI1272
aI1273
aI1273
aI1276
aI1277
aI1278
aI1278
aI1278
aI1278
aI1279
aI1281
aI1284
aI1285
aI1287
aI1292
aI1302
aI1311
aI1321
aI1331
aI1341
aI1351
aI1358
aI1359
aI1360
aI1364
aI1365
aI1365
aI1365
aI1366
aI1366
aI1366
aI1367
aI1368
aI1368
aI1369
aI1369
aI1369
aI1371
aI1371
aI1371
aI1373
aI1373
aI1374
aI1374
aI1374
aI1374
aI1374
aI1374
aI1375
aI1375
aI1376
aI1377
aI1377
aI1377
aI1377
aI1377
aI1377
aI1377
aI1377
aI1377
aI1377
aI1377
aI1379
aI1380
aI1380
aI1380
aI1380
aI1380
aI1380
aI1380
aI1380
aI1381
aI1381
aI1381
aI1381
aI1381
aI1381
aI1381
aI1381
aI1382
aI1382
aI1382
aI1383
aI1383
aI1383
aI1385
aI1386
aI1388
aI1388
aI1388
aI1388
aI1388
aI1388
aI1388
aI1388
aI1388
aI1388
aI1389
aI1389
aI1389
aI1389
aI1389
aI1389
aI1389
aI1391
aI1391
aI1391
aI1391
aI1391
aI1391
aI1391
aI1391
aI1391
aI1391
aI1391
aI1391
aI1391
aI1391
aI1391
aI1391
aI1391
aI1391
aI1391
aI1391
aI1391
aI1391
aI1391
aI1391
aI1391
aI1391
aI1392
aI1392
aI1392
aI1392
aI1392
aI1392
aI1392
aI1392
aI1392
aI1392
aI1392
aI1392
aI1392
aI1392
aI1393
aI1394
aI1394
aI1394
aI1395
aI1395
aI1395
aI1395
aI1395
aI1395
aI1395
aI1397
aI1399
aI1399
aI1399
aI1399
aI1399
aI1399
aI1399
aI1399
aI1399
aI1399
aI1399
aI1399
aI1399
aI1399
aI1399
aI1399
aI1399
aI1399
aI1399
aI1399
aI1399
aI1399
aI1399
aI1399
aI1399
aI1399
aI1399
aI1399
aI1399
aI1399
aI1399
aI1399
aI1400
aI1400
aI1400
aI1400
aI1400
aI1400
aI1400
aI1400
aI1400
aI1400
aI1400
aI1400
aI1400
aI1400
aI1400
aI1400
aI1400
aI1400
aI1400
aI1401
aI1401
aI1401
aI1401
aI1401
aI1401
aI1401
aI1401
aI1401
aI1401
aI1402
aI1402
aI1402
aI1402
aI1402
aI1402
aI1402
aI1402
aI1402
aI1402
aI1402
aI1402
aI1402
aI1402
aI1402
aI1402
aI1402
aI1402
aI1402
aI1402
aI1402
aI1402
aI1402
aI1402
aI1402
aI1402
aI1402
aI1402
aI1402
aI1402
aI1402
aI1402
aI1402
aI1402
aI1402
aI1402
aI1402
aI1402
aI1402
aI1402
aI1402
aI1402
aI1402
aI1402
aI1402
aI1402
aI1402
aI1402
aI1402
aI1402
aI1403
aI1403
aI1403
aI1403
aI1403
aI1403
aI1403
aI1403
aI1403
aI1403
aI1403
aI1403
aI1403
aI1403
aI1403
aI1403
aI1403
aI1403
aI1403
aI1403
aI1403
aI1403
aI1403
aI1403
aI1403
aI1403
aI1403
aI1403
aI1403
aI1403
aI1404
aI1404
aI1404
aI1404
aI1404
aI1404
aI1404
aI1404
aI1404
aI1404
aI1404
aI1404
aI1404
aI1404
aI1404
aI1404
aI1406
aI1406
aI1406
aI1406
aI1406
aI1406
aI1406
aI1406
aI1406
aI1406
aI1406
aI1406
aI1406
aI1406
aI1406
aI1406
aI1406
aI1406
aI1406
aI1406
aI1406
aI1406
aI1406
aI1406
aI1406
aI1406
aI1406
aI1406
aI1406
aI1406
aI1406
aI1406
aI1406
aI1406
aI1406
aI1406
aI1406
aI1406
aI1406
aI1406
aI1406
aI1406
aI1406
aI1406
aI1406
aI1406
aI1406
aI1406
aI1406
aI1406
aI1406
aI1406
aI1406
aI1406
aI1406
aI1406
aI1406
aI1406
aI1406
aI1406
aI1406
aI1406
aI1406
aI1406
aI1406
aI1406
aI1406
aI1406
aI1406
aI1406
aI1406
aI1406
aI1406
aI1406
aI1406
aI1406
aI1406
aI1406
aI1406
aI1406
aI1406
aI1406
aI1406
aI1406
aI1406
aI1406
aI1406
aI1406
aI1406
aI1406
aI1406
aI1406
aI1406
aI1406
aI1406
aI1406
aI1406
aI1406
aI1406
aI1406
aI1406
aI1406
aI1406
aI1406
aI1406
aI1406
aI1406
aI1406
aI1406
aI1406
aI1406
aI1406
aI1406
aI1406
aI1406
aI1406
aI1406
aI1406
aI1406
aI1406
aI1406
aI1406
aI1406
aI1406
aI1406
aI1406
aI1406
aI1406
aI1406
aI1406
aI1406
aI1406
aI1406
aI1406
aI1406
aI1406
aI1406
aI1406
aI1406
aI1406
aI1406
aI1406
aI1406
aI1406
aI1406
aI1406
aI1406
aI1406
aI1406
aI1406
aI1406
aI1406
aI1406
aI1406
aI1406
aI1406
aI1406
aI1406
aI1406
aI1406
aI1406
aI1406
aI1406
aI1406
aI1406
aI1406
aI1406
aI1406
aI1406
aI1406
aI1406
aI1406
aI1406
aI1406
aI1406
aI1406
aI1406
aI1406
aI1406
aI1406
aI1406
aI1406
aI1406
aI1406
aI1406
aI1406
aI1406
aI1406
aI1406
aI1406
aI1406
aI1407
aI1407
aI1407
aI1407
aI1407
aI1407
aI1407
aI1407
aI1407
aI1407
aI1407
aI1407
aI1407
aI1407
aI1407
aI1407
aI1407
aI1407
aI1407
aI1407
aI1407
aI1407
aI1407
aI1407
aI1407
aI1407
aI1407
aI1407
aI1407
aI1407
aI1407
aI1407
aI1407
aI1407
aI1407
aI1407
aI1407
aI1407
aI1407
aI1407
aI1407
aI1407
aI1407
aI1407
aI1407
aI1407
aI1407
aI1407
aI1407
aI1407
aI1407
aI1407
aI1407
aI1407
aI1407
aI1407
aI1407
aI1407
aI1407
aI1407
aI1408
aI1408
aI1408
aI1408
aI1408
aI1408
aI1408
aI1408
aI1408
aI1408
aI1408
aI1408
aI1408
aI1408
aI1408
aI1408
aI1408
aI1408
aI1408
aI1408
aI1408
aI1408
aI1408
aI1408
aI1408
aI1408
aI1408
aI1408
aI1408
aI1408
aI1408
aI1408
aI1408
aI1408
aI1408
aI1408
aI1408
aI1408
aI1408
aI1408
aI1408
aI1408
aI1408
aI1408
aI1408
aI1408
aI1408
aI1408
aI1408
aI1408
aI1408
aI1408
aI1408
aI1408
aI1408
aI1408
aI1408
aI1408
aI1408
aI1408
aI1408
aI1408
aI1408
aI1408
aI1408
aI1409
aI1409
aI1409
aI1409
aI1409
aI1409
aI1409
aI1409
aI1409
aI1409
aI1409
aI1409
aI1409
aI1409
aI1409
aI1409
aI1409
aI1409
aI1409
aI1409
aI1409
aI1409
aI1409
aI1409
aI1409
aI1409
aI1409
aI1410
aI1410
aI1410
aI1410
aI1410
aI1410
aI1410
aI1410
aI1410
aI1410
aI1410
aI1410
aI1410
aI1410
aI1410
aI1410
aI1410
aI1410
aI1410
aI1410
aI1410
aI1410
aI1410
aI1410
aI1410
aI1410
aI1410
aI1411
aI1411
aI1411
aI1411
aI1411
aI1412
aI1412
aI1412
aI1412
aI1412
aI1412
aI1412
aI1412
aI1412
aI1412
aI1412
aI1412
aI1412
aI1412
aI1412
aI1412
aI1412
aI1412
aI1412
aI1412
aI1412
aI1412
aI1412
aI1412
aI1412
aI1412
aI1413
assS'true'
p14
(lp15
I1413
aI9452
as.