(dp0
S'x'
p1
(lp2
I0
aI10
aI20
aI30
aI40
aI50
aI60
aI70
aI80
aI90
aI100
aI110
aI120
aI130
aI140
aI150
aI160
aI170
aI180
aI190
aI200
aI210
aI220
aI230
aI240
aI250
aI260
aI270
aI280
aI290
aI300
aI310
aI320
aI330
aI340
aI350
aI360
aI370
aI380
aI390
aI400
aI410
aI420
aI430
aI440
aI450
aI460
aI470
aI480
aI490
aI500
aI510
aI520
aI530
aI540
aI550
aI560
aI570
aI580
aI590
aI600
aI610
aI620
aI630
aI640
aI650
aI660
aI670
aI680
aI690
aI700
aI710
aI720
aI730
aI740
aI750
aI760
aI770
aI780
aI790
aI800
aI810
aI820
aI830
aI840
aI850
aI860
aI870
aI880
aI890
aI900
aI910
aI920
aI930
aI940
aI950
aI960
aI970
aI980
aI990
aI1000
aI1010
aI1020
aI1030
aI1040
aI1050
aI1060
aI1070
aI1080
aI1090
aI1100
aI1110
aI1120
aI1130
aI1140
aI1150
aI1160
aI1170
aI1180
aI1190
aI1200
aI1210
aI1220
aI1230
aI1240
aI1250
aI1260
aI1270
aI1280
aI1290
aI1300
aI1310
aI1320
aI1330
aI1340
aI1350
aI1360
aI1370
aI1380
aI1390
aI1400
aI1410
aI1420
aI1430
aI1440
aI1450
aI1460
aI1470
aI1480
aI1490
aI1500
aI1510
aI1520
aI1530
aI1540
aI1550
aI1560
aI1570
aI1580
aI1590
aI1600
aI1610
aI1620
aI1630
aI1640
aI1650
aI1660
aI1670
aI1680
aI1690
aI1700
aI1710
aI1720
aI1730
aI1740
aI1750
aI1760
aI1770
aI1780
aI1790
aI1800
aI1810
aI1820
aI1830
aI1840
aI1850
aI1860
aI1870
aI1880
aI1890
aI1900
aI1910
aI1920
aI1930
aI1940
aI1950
aI1960
aI1970
aI1980
aI1990
aI2000
aI2010
aI2020
aI2030
aI2040
aI2050
aI2060
aI2070
aI2080
aI2090
aI2100
aI2110
aI2120
aI2130
aI2140
aI2150
aI2160
aI2170
aI2180
aI2190
aI2200
aI2210
aI2220
aI2230
aI2240
aI2250
aI2260
aI2270
aI2280
aI2290
aI2300
aI2310
aI2320
aI2330
aI2340
aI2350
aI2360
aI2370
aI2380
aI2390
aI2400
aI2410
aI2420
aI2430
aI2440
aI2450
aI2460
aI2470
aI2480
aI2490
aI2500
aI2510
aI2520
aI2530
aI2540
aI2550
aI2560
aI2570
aI2580
aI2590
aI2600
aI2610
aI2620
aI2630
aI2640
aI2650
aI2660
aI2670
aI2680
aI2690
aI2700
aI2710
aI2720
aI2730
aI2740
asS'est'
p3
(lp4
I741
aI741
aI747
aI754
aI758
aI768
aI774
aI781
aI787
aI793
aI797
aI803
aI805
aI810
aI814
aI817
aI822
aI825
aI830
aI835
aI841
aI845
aI851
aI855
aI861
aI866
aI872
aI878
aI883
aI888
aI892
aI896
aI902
aI905
aI908
aI913
aI915
aI919
aI918
aI924
aI926
aI930
aI933
aI934
aI939
aI944
aI943
aI948
aI950
aI954
aI959
aI965
aI966
aI966
aI970
aI973
aI975
aI977
aI978
aI980
aI983
aI986
aI989
aI995
aI999
aI1004
aI1008
aI1011
aI1016
aI1018
aI1023
aI1029
aI1033
aI1037
aI1045
aI1047
aI1051
aI1057
aI1062
aI1068
aI1074
aI1077
aI1082
aI1085
aI1086
aI1090
aI1095
aI1099
aI1101
aI1107
aI1111
aI1113
aI1115
aI1118
aI1118
aI1120
aI1124
aI1129
aI1133
aI1136
aI1140
aI1144
aI1148
aI1151
aI1156
aI1161
aI1162
aI1161
aI1166
aI1170
aI1171
aI1173
aI1178
aI1182
aI1186
aI1183
aI1188
aI1193
aI1199
aI1199
aI1195
aI1199
aI1196
aI1199
aI1203
aI1208
aI1211
aI1215
aI1220
aI1219
aI1219
aI1223
aI1221
aI1226
aI1229
aI1231
aI1236
aI1243
aI1240
aI1242
aI1243
aI1245
aI1248
aI1254
aI1259
aI1263
aI1266
aI1269
aI1270
aI1273
aI1273
aI1274
aI1279
aI1279
aI1284
aI1283
aI1286
aI1288
aI1292
aI1297
aI1298
aI1297
aI1298
aI1299
aI1302
aI1304
aI1304
aI1309
aI1311
aI1308
aI1311
aI1310
aI1310
aI1311
aI1310
aI1314
aI1317
aI1320
aI1324
aI1328
aI1329
aI1329
aI1333
aI1335
aI1335
aI1334
aI1334
aI1334
aI1334
aI1334
aI1334
aI1334
aI1334
aI1334
aI1334
aI1333
aI1333
aI1333
aI1333
aI1333
aI1333
aI1333
aI1332
aI1332
aI1332
aI1332
aI1332
aI1332
aI1332
aI1332
aI1332
aI1331
aI1331
aI1331
aI1331
aI1331
aI1331
aI1331
aI1331
aI1330
aI1330
aI1330
aI1330
aI1330
aI1330
aI1330
aI1329
aI1329
aI1329
aI1329
aI1329
aI1329
aI1329
aI1329
aI1329
aI1329
aI1329
aI1329
aI1328
aI1328
aI1328
aI1328
aI1328
aI1328
aI1328
aI1328
aI1328
aI1328
aI1328
aI1327
aI1327
aI1327
aI1327
aI1327
aI1327
aI1327
aI1327
aI1327
aI1326
aI1326
aI1326
aI1326
aI1326
aI1326
aI1326
aI1326
aI1325
aI1325
aI1325
aI1325
aI1325
aI1325
aI1325
aI1325
aI1324
asS'true'
p5
(lp6
I1413
aI9452
asS'pos'
p7
(lp8
I0
aI9
aI19
aI27
aI37
aI46
aI56
aI66
aI74
aI82
aI91
aI96
aI104
aI112
aI119
aI128
aI134
aI143
aI151
aI161
aI168
aI178
aI186
aI195
aI204
aI214
aI223
aI232
aI239
aI246
aI254
aI264
aI271
aI279
aI287
aI293
aI301
aI303
aI313
aI319
aI326
aI333
aI337
aI346
aI355
aI358
aI367
aI372
aI379
aI387
aI397
aI402
aI405
aI413
aI420
aI426
aI431
aI436
aI441
aI447
aI454
aI460
aI470
aI478
aI487
aI494
aI501
aI511
aI516
aI525
aI535
aI542
aI549
aI559
aI566
aI573
aI582
aI591
aI600
aI609
aI616
aI624
aI632
aI636
aI644
aI653
aI661
aI667
aI676
aI683
aI689
aI695
aI701
aI705
aI711
aI718
aI726
aI733
aI740
aI747
aI755
aI762
aI769
aI777
aI786
aI790
aI791
aI801
aI809
aI814
aI819
aI828
aI835
aI843
aI843
aI852
aI859
aI868
aI872
aI873
aI881
aI881
aI887
aI895
aI903
aI910
aI919
aI928
aI931
aI935
aI942
aI943
aI952
aI958
aI964
aI973
aI983
aI984
aI989
aI994
aI999
aI1005
aI1015
aI1024
aI1032
aI1039
aI1045
aI1051
aI1058
aI1062
aI1068
aI1077
aI1081
aI1090
aI1092
aI1100
aI1107
aI1115
aI1124
aI1129
aI1132
aI1137
aI1144
aI1150
aI1157
aI1161
aI1170
aI1176
aI1176
aI1183
aI1185
aI1189
aI1194
aI1198
aI1206
aI1212
aI1221
aI1229
aI1238
aI1242
aI1246
aI1254
aI1258
aI1258
aI1258
aI1258
aI1258
aI1258
aI1258
aI1258
aI1258
aI1258
aI1258
aI1258
aI1258
aI1258
aI1258
aI1258
aI1258
aI1258
aI1258
aI1258
aI1258
aI1258
aI1258
aI1258
aI1258
aI1258
aI1258
aI1258
aI1258
aI1258
aI1258
aI1258
aI1258
aI1258
aI1258
aI1258
aI1258
aI1258
aI1258
aI1258
aI1258
aI1258
aI1258
aI1258
aI1258
aI1258
aI1258
aI1258
aI1258
aI1258
aI1258
aI1258
aI1258
aI1258
aI1258
aI1258
aI1258
aI1258
aI1258
aI1258
aI1258
aI1258
aI1258
aI1258
aI1258
aI1258
aI1258
aI1258
aI1258
aI1258
aI1258
aI1258
aI1258
aI1258
aI1258
aI1258
aI1258
aI1258
aI1258
aI1258
aI1258
aI1258
aI1258
aI1258
aI1258
aI1258
aI1258
aI1258
aI1258
aI1258
aI1258
aI1258
aI1258
as.