(dp0
S'active'
p1
(dp2
S'x'
p3
(lp4
I0
aI10
aI20
aI30
aI40
aI50
aI60
aI70
aI80
aI90
aI100
aI110
aI120
aI130
aI140
aI150
aI160
aI170
aI180
aI190
aI200
aI210
aI220
aI230
aI240
aI250
aI260
aI270
aI280
aI290
aI300
aI310
aI320
aI330
aI340
aI350
aI360
aI370
aI380
aI390
aI400
aI410
aI420
aI430
aI440
aI450
aI460
aI470
aI480
aI490
aI500
aI510
aI520
aI530
aI540
aI550
aI560
aI570
aI580
aI590
aI600
aI610
aI620
aI630
aI640
aI650
aI660
aI670
aI680
aI690
aI700
aI710
aI720
aI730
aI740
aI750
aI760
aI770
aI780
aI790
aI800
aI810
aI820
aI830
aI840
aI850
aI860
aI870
aI880
aI890
aI900
aI910
aI920
aI930
aI940
aI950
aI960
aI970
aI980
aI990
aI1000
aI1010
aI1020
aI1030
aI1040
aI1050
aI1060
aI1070
aI1080
aI1090
aI1100
aI1110
aI1120
aI1130
aI1140
aI1150
aI1160
aI1170
aI1180
aI1190
aI1200
aI1210
aI1220
aI1230
aI1240
aI1250
aI1260
aI1270
aI1280
aI1290
aI1300
aI1310
aI1320
aI1330
aI1340
aI1350
aI1360
aI1370
aI1380
aI1390
aI1400
aI1410
aI1420
aI1430
aI1440
aI1450
aI1460
aI1470
aI1480
aI1490
aI1500
aI1510
aI1520
aI1530
aI1540
aI1550
aI1560
aI1570
aI1580
aI1590
aI1600
aI1610
aI1620
aI1630
aI1640
aI1650
aI1660
aI1670
aI1680
aI1690
aI1700
aI1710
aI1720
aI1730
aI1740
aI1750
aI1760
aI1770
aI1780
aI1790
aI1800
aI1810
aI1820
aI1830
aI1840
aI1850
aI1860
aI1870
aI1880
aI1890
aI1900
aI1910
aI1920
aI1930
aI1940
aI1950
aI1960
aI1970
aI1980
aI1990
aI2000
aI2010
aI2020
aI2030
aI2040
aI2050
aI2060
aI2070
aI2080
aI2090
aI2100
aI2110
aI2120
aI2130
aI2140
aI2150
aI2160
aI2170
aI2180
aI2190
aI2200
aI2210
aI2220
aI2230
aI2240
aI2250
aI2260
aI2270
aI2280
aI2290
aI2300
aI2310
aI2320
aI2330
aI2340
aI2350
aI2360
aI2370
aI2380
aI2390
aI2400
aI2410
aI2420
aI2430
aI2440
aI2450
aI2460
aI2470
aI2480
aI2490
aI2500
aI2510
aI2520
aI2530
aI2540
aI2550
aI2560
aI2570
aI2580
aI2590
aI2600
aI2610
aI2620
aI2630
aI2640
aI2650
aI2660
aI2670
aI2680
aI2690
aI2700
aI2710
aI2720
aI2730
aI2740
aI2750
aI2760
aI2770
aI2780
aI2790
aI2800
aI2810
aI2820
aI2830
aI2840
aI2850
aI2860
aI2870
aI2880
aI2890
aI2900
aI2910
aI2920
aI2930
aI2940
aI2950
aI2960
aI2970
aI2980
aI2990
aI3000
aI3010
aI3020
aI3030
aI3040
aI3050
aI3060
aI3070
aI3080
aI3090
aI3100
aI3110
aI3120
aI3130
aI3140
aI3150
aI3160
aI3170
aI3180
aI3190
aI3200
aI3210
aI3220
aI3230
aI3240
aI3250
aI3260
aI3270
aI3280
aI3290
aI3300
aI3310
aI3320
aI3330
aI3340
aI3350
aI3360
aI3370
aI3380
aI3390
aI3400
aI3410
aI3420
aI3430
aI3440
aI3450
aI3460
aI3470
aI3480
aI3490
aI3500
aI3510
aI3520
aI3530
aI3540
aI3550
aI3560
aI3570
aI3580
aI3590
aI3600
aI3610
aI3620
aI3630
aI3640
aI3650
aI3660
aI3670
aI3680
aI3690
aI3700
aI3710
aI3720
aI3730
aI3740
aI3750
aI3760
aI3770
aI3780
aI3790
aI3800
aI3810
aI3820
aI3830
aI3840
aI3850
aI3860
aI3870
aI3880
aI3890
aI3900
aI3910
aI3920
aI3930
aI3940
aI3950
aI3960
aI3970
aI3980
aI3990
aI4000
aI4010
aI4020
aI4030
aI4040
aI4050
aI4060
aI4070
aI4080
aI4090
aI4100
asS'est'
p5
(lp6
I0
aI0
aI108
aI109
aI110
aI110
aI109
aI113
aI115
aI112
aI112
aI110
aI114
aI118
aI116
aI110
aI113
aI124
aI67
aI76
aI85
aI93
aI98
aI105
aI122
aI148
aI170
aI193
aI198
aI220
aI253
aI277
aI281
aI282
aI275
aI276
aI275
aI262
aI247
aI237
aI254
aI268
aI258
aI258
aI265
aI251
aI252
aI251
aI241
aI236
aI235
aI233
aI236
aI229
aI228
aI234
aI226
aI224
aI225
aI221
aI224
aI219
aI220
aI221
aI216
aI215
aI212
aI213
aI211
aI211
aI211
aI211
aI212
aI211
aI213
aI211
aI211
aI208
aI209
aI208
aI209
aI207
aI207
aI206
aI207
aI206
aI204
aI207
aI207
aI205
aI206
aI208
aI208
aI208
aI205
aI206
aI205
aI204
aI203
aI205
aI205
aI205
aI203
aI203
aI203
aI202
aI202
aI203
aI203
aI202
aI203
aI202
aI202
aI202
aI202
aI201
aI201
aI202
aI200
aI201
aI200
aI201
aI200
aI201
aI203
aI202
aI203
aI202
aI202
aI203
aI203
aI203
aI203
aI203
aI202
aI203
aI203
aI202
aI202
aI202
aI202
aI202
aI202
aI202
aI202
aI202
aI202
aI202
aI201
aI201
aI200
aI201
aI201
aI201
aI201
aI201
aI200
aI201
aI201
aI201
aI200
aI200
aI200
aI200
aI199
aI199
aI199
aI200
aI200
aI200
aI200
aI199
aI199
aI199
aI200
aI199
aI199
aI199
aI199
aI199
aI199
aI199
aI199
aI199
aI199
aI199
aI199
aI198
aI198
aI199
aI198
aI198
aI198
aI198
aI198
aI198
aI198
aI198
aI198
aI198
aI198
aI198
aI198
aI198
aI197
aI198
aI198
aI198
aI198
aI198
aI198
aI197
aI198
aI198
aI198
aI198
aI197
aI198
aI197
aI197
aI197
aI197
aI197
aI197
aI197
aI198
aI197
aI197
aI197
aI197
aI197
aI197
aI197
aI197
aI197
aI197
aI197
aI197
aI197
aI197
aI196
aI197
aI197
aI197
aI197
aI197
aI197
aI197
aI197
aI196
aI196
aI196
aI197
aI197
aI197
aI196
aI197
aI196
aI196
aI196
aI196
aI196
aI196
aI196
aI196
aI196
aI196
aI196
aI196
aI196
aI196
aI197
aI198
aI198
aI198
aI198
aI198
aI198
aI198
aI198
aI198
aI198
aI198
aI198
aI198
aI198
aI198
aI198
aI198
aI198
aI198
aI198
aI198
aI198
aI198
aI198
aI198
aI198
aI198
aI198
aI198
aI198
aI198
aI198
aI198
aI198
aI198
aI198
aI198
aI198
aI198
aI198
aI198
aI198
aI198
aI199
aI199
aI199
aI199
aI199
aI199
aI199
aI199
aI199
aI199
aI199
aI199
aI199
aI199
aI199
aI199
aI199
aI199
aI199
aI199
aI199
aI199
aI199
aI199
aI199
aI199
aI199
aI199
aI199
aI199
aI198
aI200
aI200
aI200
aI199
aI199
aI199
aI199
aI199
aI199
aI199
aI199
aI199
aI199
aI199
aI199
aI199
aI199
aI199
aI199
aI199
aI199
aI199
aI199
aI199
aI199
aI199
aI199
aI199
aI199
aI199
aI199
aI199
aI199
aI199
aI199
aI199
aI199
aI199
aI199
aI199
aI199
aI199
aI199
aI199
aI199
aI199
aI199
aI199
aI199
aI199
aI199
aI199
aI199
aI199
aI199
aI199
aI201
aI201
aI201
aI201
aI202
aI202
aI202
aI202
aI203
asS'pos'
p7
(lp8
I0
aI1
aI1
aI1
aI1
aI1
aI1
aI1
aI1
aI1
aI1
aI1
aI1
aI1
aI6
aI14
aI24
aI34
aI44
aI53
aI60
aI67
aI73
aI83
aI93
aI103
aI112
aI117
aI127
aI137
aI146
aI151
aI153
aI157
aI160
aI161
aI161
aI161
aI164
aI174
aI183
aI183
aI183
aI184
aI185
aI185
aI185
aI185
aI185
aI188
aI188
aI188
aI188
aI188
aI188
aI188
aI188
aI188
aI188
aI188
aI188
aI188
aI188
aI188
aI188
aI188
aI188
aI188
aI188
aI188
aI188
aI188
aI188
aI189
aI189
aI189
aI189
aI189
aI189
aI189
aI189
aI189
aI189
aI189
aI189
aI189
aI190
aI190
aI190
aI190
aI191
aI191
aI191
aI191
aI191
aI191
aI191
aI191
aI191
aI192
aI192
aI192
aI192
aI192
aI192
aI192
aI192
aI192
aI192
aI192
aI192
aI192
aI192
aI192
aI192
aI192
aI192
aI192
aI192
aI192
aI192
aI192
aI193
aI194
aI194
aI194
aI194
aI194
aI194
aI195
aI195
aI195
aI195
aI195
aI195
aI195
aI195
aI195
aI195
aI195
aI195
aI195
aI195
aI195
aI195
aI195
aI195
aI195
aI195
aI195
aI195
aI195
aI195
aI195
aI195
aI195
aI195
aI195
aI195
aI195
aI195
aI195
aI195
aI195
aI195
aI195
aI195
aI195
aI195
aI195
aI195
aI195
aI195
aI195
aI195
aI195
aI195
aI195
aI195
aI195
aI195
aI195
aI195
aI195
aI195
aI195
aI195
aI195
aI195
aI195
aI195
aI195
aI195
aI195
aI195
aI195
aI195
aI195
aI195
aI195
aI195
aI195
aI195
aI195
aI195
aI195
aI195
aI195
aI195
aI195
aI195
aI195
aI195
aI195
aI195
aI195
aI195
aI195
aI195
aI195
aI195
aI195
aI195
aI195
aI195
aI195
aI195
aI195
aI195
aI195
aI195
aI195
aI195
aI195
aI195
aI195
aI195
aI195
aI195
aI195
aI195
aI195
aI195
aI195
aI195
aI195
aI195
aI195
aI195
aI195
aI195
aI195
aI195
aI195
aI195
aI195
aI195
aI195
aI195
aI195
aI195
aI195
aI195
aI195
aI195
aI195
aI195
aI195
aI195
aI195
aI196
aI197
aI197
aI197
aI197
aI197
aI197
aI197
aI197
aI197
aI197
aI197
aI197
aI197
aI197
aI197
aI197
aI197
aI197
aI197
aI197
aI197
aI197
aI197
aI197
aI197
aI197
aI197
aI197
aI197
aI197
aI197
aI197
aI197
aI197
aI197
aI197
aI197
aI197
aI197
aI197
aI197
aI197
aI197
aI198
aI198
aI198
aI198
aI198
aI198
aI198
aI198
aI198
aI198
aI198
aI198
aI198
aI198
aI198
aI198
aI198
aI198
aI198
aI198
aI198
aI198
aI198
aI198
aI198
aI198
aI198
aI198
aI198
aI198
aI198
aI199
aI199
aI199
aI199
aI199
aI199
aI199
aI199
aI199
aI199
aI199
aI199
aI199
aI199
aI199
aI199
aI199
aI199
aI199
aI199
aI199
aI199
aI199
aI199
aI199
aI199
aI199
aI199
aI199
aI199
aI199
aI199
aI199
aI199
aI199
aI199
aI199
aI199
aI199
aI199
aI199
aI199
aI199
aI199
aI199
aI199
aI199
aI199
aI199
aI199
aI199
aI199
aI199
aI199
aI199
aI199
aI201
aI201
aI201
aI201
aI202
aI202
aI202
aI202
aI203
aI204
assS'supervised'
p9
(dp10
g3
(lp11
I0
aI10
aI20
aI30
aI40
aI50
aI60
aI70
aI80
aI90
aI100
aI110
aI120
aI130
aI140
aI150
aI160
aI170
aI180
aI190
aI200
aI210
aI220
aI230
aI240
aI250
aI260
aI270
aI280
aI290
aI300
aI310
aI320
aI330
aI340
aI350
aI360
aI370
aI380
aI390
aI400
aI410
aI420
aI430
aI440
aI450
aI460
aI470
aI480
aI490
aI500
aI510
aI520
aI530
aI540
aI550
aI560
aI570
aI580
aI590
aI600
aI610
aI620
aI630
aI640
aI650
aI660
aI670
aI680
aI690
aI700
aI710
aI720
aI730
aI740
aI750
aI760
aI770
aI780
aI790
aI800
aI810
aI820
aI830
aI840
aI850
aI860
aI870
aI880
aI890
aI900
aI910
aI920
aI930
aI940
aI950
aI960
aI970
aI980
aI990
aI1000
aI1010
aI1020
aI1030
aI1040
aI1050
aI1060
aI1070
aI1080
aI1090
aI1100
aI1110
aI1120
aI1130
aI1140
aI1150
aI1160
aI1170
aI1180
aI1190
aI1200
aI1210
aI1220
aI1230
aI1240
aI1250
aI1260
aI1270
aI1280
aI1290
aI1300
aI1310
aI1320
aI1330
aI1340
aI1350
aI1360
aI1370
aI1380
aI1390
aI1400
aI1410
aI1420
aI1430
aI1440
aI1450
aI1460
aI1470
aI1480
aI1490
aI1500
aI1510
aI1520
aI1530
aI1540
aI1550
aI1560
aI1570
aI1580
aI1590
aI1600
aI1610
aI1620
aI1630
aI1640
aI1650
aI1660
aI1670
aI1680
aI1690
aI1700
aI1710
aI1720
aI1730
aI1740
aI1750
aI1760
aI1770
aI1780
aI1790
aI1800
aI1810
aI1820
aI1830
aI1840
aI1850
aI1860
aI1870
aI1880
aI1890
aI1900
aI1910
aI1920
aI1930
aI1940
aI1950
aI1960
aI1970
aI1980
aI1990
aI2000
aI2010
aI2020
aI2030
aI2040
aI2050
aI2060
aI2070
aI2080
aI2090
aI2100
aI2110
aI2120
aI2130
aI2140
aI2150
aI2160
aI2170
aI2180
aI2190
aI2200
aI2210
aI2220
aI2230
aI2240
aI2250
aI2260
aI2270
aI2280
aI2290
aI2300
aI2310
aI2320
aI2330
aI2340
aI2350
aI2360
aI2370
aI2380
aI2390
aI2400
aI2410
aI2420
aI2430
aI2440
asg5
(lp12
I181
aI181
aI182
aI185
aI190
aI194
aI199
aI204
aI208
aI212
aI217
aI223
aI227
aI232
aI237
aI240
aI244
aI245
aI250
aI253
aI257
aI255
aI256
aI258
aI258
aI256
aI254
aI253
aI252
aI253
aI251
aI250
aI250
aI248
aI247
aI246
aI244
aI243
aI242
aI241
aI240
aI239
aI238
aI238
aI237
aI236
aI237
aI237
aI237
aI236
aI237
aI236
aI236
aI235
aI235
aI234
aI234
aI233
aI233
aI233
aI233
aI233
aI232
aI232
aI231
aI232
aI232
aI231
aI231
aI231
aI230
aI230
aI230
aI229
aI229
aI229
aI228
aI228
aI228
aI228
aI227
aI227
aI227
aI227
aI226
aI226
aI226
aI226
aI225
aI225
aI225
aI225
aI225
aI224
aI224
aI224
aI224
aI224
aI223
aI223
aI223
aI223
aI223
aI223
aI222
aI222
aI222
aI222
aI222
aI221
aI221
aI221
aI221
aI221
aI221
aI220
aI220
aI220
aI220
aI220
aI220
aI220
aI219
aI219
aI219
aI219
aI219
aI219
aI219
aI218
aI218
aI218
aI218
aI218
aI218
aI218
aI217
aI217
aI217
aI217
aI217
aI217
aI217
aI217
aI216
aI216
aI216
aI216
aI216
aI216
aI216
aI216
aI216
aI215
aI215
aI215
aI215
aI215
aI215
aI215
aI215
aI215
aI215
aI214
aI214
aI214
aI214
aI214
aI214
aI214
aI214
aI214
aI214
aI214
aI213
aI213
aI213
aI213
aI213
aI213
aI213
aI213
aI213
aI213
aI213
aI213
aI212
aI212
aI212
aI212
aI212
aI212
aI212
aI212
aI212
aI212
aI212
aI212
aI212
aI212
aI211
aI211
aI211
aI211
aI211
aI211
aI211
aI211
aI211
aI211
aI211
aI211
aI211
aI211
aI210
aI210
aI210
aI210
aI210
aI210
aI210
aI210
aI210
aI210
aI210
aI210
aI210
aI210
aI209
aI209
aI209
aI209
aI209
aI209
aI210
aI210
aI210
aI211
aI211
aI211
aI211
aI211
aI212
aI212
aI212
asg7
(lp13
I0
aI6
aI14
aI24
aI34
aI44
aI54
aI64
aI73
aI83
aI93
aI102
aI112
aI122
aI131
aI140
aI146
aI156
aI164
aI173
aI174
aI179
aI184
aI187
aI188
aI189
aI190
aI191
aI193
aI193
aI193
aI194
aI194
aI194
aI194
aI194
aI194
aI194
aI194
aI194
aI194
aI194
aI194
aI194
aI194
aI196
aI196
aI197
aI197
aI198
aI198
aI198
aI198
aI198
aI198
aI198
aI198
aI198
aI199
aI199
aI199
aI199
aI199
aI199
aI200
aI200
aI200
aI200
aI200
aI200
aI200
aI200
aI200
aI200
aI200
aI200
aI200
aI200
aI200
aI200
aI200
aI200
aI200
aI200
aI200
aI200
aI200
aI200
aI200
aI200
aI200
aI200
aI200
aI200
aI200
aI200
aI200
aI200
aI200
aI200
aI200
aI200
aI200
aI200
aI200
aI200
aI200
aI200
aI200
aI200
aI200
aI200
aI200
aI200
aI200
aI200
aI200
aI200
aI200
aI200
aI200
aI200
aI200
aI200
aI200
aI200
aI200
aI200
aI200
aI200
aI200
aI200
aI200
aI200
aI200
aI200
aI200
aI200
aI200
aI200
aI200
aI200
aI200
aI200
aI200
aI200
aI200
aI200
aI200
aI200
aI200
aI200
aI200
aI200
aI200
aI200
aI200
aI200
aI200
aI200
aI200
aI200
aI200
aI200
aI200
aI200
aI200
aI200
aI200
aI200
aI200
aI200
aI200
aI200
aI200
aI200
aI200
aI200
aI200
aI200
aI200
aI200
aI200
aI200
aI200
aI200
aI200
aI200
aI200
aI200
aI200
aI200
aI200
aI200
aI200
aI200
aI200
aI200
aI200
aI200
aI200
aI200
aI200
aI200
aI200
aI200
aI200
aI200
aI200
aI200
aI200
aI200
aI200
aI200
aI200
aI200
aI200
aI200
aI200
aI200
aI200
aI200
aI200
aI200
aI200
aI200
aI200
aI200
aI200
aI200
aI200
aI200
aI200
aI201
aI201
aI201
aI202
aI202
aI202
aI202
aI202
aI203
aI203
aI203
aI204
assS'true'
p14
(lp15
I204
aI6468
as.