(dp0
S'x'
p1
(lp2
I0
aI10
aI20
aI30
aI40
aI50
aI60
aI70
aI80
aI90
aI100
aI110
aI120
aI130
aI140
aI150
aI160
aI170
aI180
aI190
aI200
aI210
aI220
aI230
aI240
aI250
aI260
aI270
aI280
aI290
aI300
aI310
aI320
aI330
aI340
aI350
aI360
aI370
aI380
aI390
aI400
aI410
aI420
aI430
aI440
aI450
aI460
aI470
aI480
aI490
aI500
aI510
aI520
aI530
aI540
aI550
aI560
aI570
aI580
aI590
aI600
aI610
aI620
aI630
aI640
aI650
aI660
aI670
aI680
aI690
aI700
aI710
aI720
aI730
aI740
aI750
aI760
aI770
aI780
aI790
aI800
aI810
aI820
aI830
aI840
aI850
aI860
aI870
aI880
aI890
aI900
aI910
aI920
aI930
aI940
aI950
aI960
aI970
aI980
aI990
aI1000
aI1010
aI1020
aI1030
aI1040
aI1050
aI1060
aI1070
aI1080
asS'est'
p3
(lp4
I250
aI250
aI253
aI257
aI261
aI265
aI270
aI274
aI279
aI283
aI286
aI287
aI290
aI291
aI293
aI296
aI299
aI304
aI309
aI313
aI316
aI319
aI319
aI322
aI325
aI327
aI330
aI332
aI338
aI342
aI346
aI350
aI353
aI359
aI361
aI364
aI367
aI371
aI374
aI380
aI383
aI388
aI392
aI392
aI393
aI394
aI397
aI394
aI395
aI395
aI399
aI401
aI404
aI409
aI412
aI413
aI415
aI415
aI418
aI420
aI420
aI420
aI420
aI420
aI420
aI420
aI420
aI420
aI419
aI419
aI419
aI419
aI419
aI419
aI419
aI419
aI418
aI418
aI418
aI418
aI418
aI418
aI418
aI418
aI418
aI418
aI418
aI418
aI417
aI417
aI417
aI417
aI417
aI417
aI417
aI417
aI417
aI417
aI416
aI416
aI416
aI416
aI416
aI416
aI416
aI416
aI416
aI416
aI415
asS'true'
p5
(lp6
I472
aI2968
asS'pos'
p7
(lp8
I0
aI7
aI16
aI24
aI32
aI41
aI48
aI58
aI66
aI73
aI79
aI86
aI91
aI97
aI103
aI109
aI119
aI128
aI136
aI142
aI149
aI153
aI159
aI166
aI171
aI178
aI184
aI194
aI202
aI211
aI219
aI226
aI236
aI241
aI249
aI257
aI265
aI271
aI280
aI287
aI296
aI305
aI308
aI313
aI317
aI323
aI325
aI331
aI333
aI341
aI347
aI354
aI362
aI370
aI374
aI380
aI383
aI390
aI395
aI395
aI395
aI395
aI395
aI395
aI395
aI395
aI395
aI395
aI395
aI395
aI395
aI395
aI395
aI395
aI395
aI395
aI395
aI395
aI395
aI395
aI395
aI395
aI395
aI395
aI395
aI395
aI395
aI395
aI395
aI395
aI395
aI395
aI395
aI395
aI395
aI395
aI395
aI395
aI395
aI395
aI395
aI395
aI395
aI395
aI395
aI395
aI395
aI395
aI395
as.