(dp0
S'active'
p1
(dp2
S'x'
p3
(lp4
I0
aI10
aI20
aI30
aI40
aI50
aI60
aI70
aI80
aI90
aI100
aI110
aI120
aI130
aI140
aI150
aI160
aI170
aI180
aI190
aI200
aI210
aI220
aI230
aI240
aI250
aI260
aI270
aI280
aI290
aI300
aI310
aI320
aI330
aI340
aI350
aI360
aI370
aI380
aI390
aI400
aI410
aI420
aI430
aI440
aI450
aI460
aI470
aI480
aI490
aI500
aI510
aI520
aI530
aI540
aI550
aI560
aI570
aI580
aI590
aI600
aI610
aI620
aI630
aI640
aI650
aI660
aI670
aI680
aI690
aI700
aI710
aI720
aI730
aI740
aI750
aI760
aI770
aI780
aI790
aI800
aI810
aI820
aI830
aI840
aI850
aI860
aI870
aI880
aI890
aI900
aI910
aI920
aI930
aI940
aI950
aI960
aI970
aI980
aI990
aI1000
aI1010
aI1020
aI1030
aI1040
aI1050
aI1060
aI1070
aI1080
aI1090
aI1100
aI1110
aI1120
aI1130
aI1140
aI1150
aI1160
aI1170
aI1180
aI1190
aI1200
aI1210
aI1220
aI1230
aI1240
aI1250
aI1260
aI1270
aI1280
aI1290
aI1300
aI1310
aI1320
aI1330
aI1340
aI1350
aI1360
aI1370
aI1380
aI1390
aI1400
aI1410
aI1420
aI1430
aI1440
aI1450
aI1460
aI1470
aI1480
aI1490
aI1500
aI1510
aI1520
aI1530
aI1540
aI1550
aI1560
aI1570
aI1580
aI1590
aI1600
aI1610
aI1620
aI1630
aI1640
aI1650
aI1660
aI1670
aI1680
aI1690
aI1700
aI1710
aI1720
aI1730
aI1740
aI1750
aI1760
aI1770
aI1780
aI1790
aI1800
aI1810
aI1820
aI1830
aI1840
aI1850
aI1860
aI1870
aI1880
aI1890
aI1900
aI1910
aI1920
aI1930
aI1940
aI1950
aI1960
aI1970
aI1980
aI1990
aI2000
aI2010
aI2020
aI2030
aI2040
aI2050
aI2060
aI2070
aI2080
aI2090
aI2100
aI2110
aI2120
aI2130
aI2140
aI2150
aI2160
aI2170
aI2180
aI2190
aI2200
aI2210
aI2220
aI2230
aI2240
aI2250
aI2260
aI2270
aI2280
aI2290
aI2300
aI2310
aI2320
aI2330
aI2340
aI2350
aI2360
aI2370
aI2380
aI2390
aI2400
aI2410
aI2420
aI2430
aI2440
aI2450
aI2460
aI2470
aI2480
aI2490
aI2500
aI2510
aI2520
aI2530
aI2540
aI2550
aI2560
aI2570
aI2580
aI2590
aI2600
aI2610
aI2620
aI2630
aI2640
aI2650
aI2660
aI2670
aI2680
aI2690
aI2700
aI2710
aI2720
aI2730
aI2740
aI2750
aI2760
aI2770
aI2780
aI2790
aI2800
aI2810
aI2820
aI2830
aI2840
aI2850
aI2860
aI2870
aI2880
aI2890
aI2900
aI2910
aI2920
aI2930
aI2940
asS'est'
p5
(lp6
I0
aI0
aI61
aI65
aI72
aI72
aI89
aI115
aI129
aI163
aI165
aI184
aI189
aI216
aI230
aI248
aI258
aI269
aI280
aI297
aI310
aI334
aI350
aI359
aI372
aI376
aI399
aI420
aI432
aI456
aI465
aI490
aI498
aI511
aI528
aI545
aI556
aI569
aI568
aI567
aI567
aI565
aI563
aI559
aI565
aI560
aI560
aI552
aI550
aI572
aI566
aI575
aI573
aI579
aI579
aI567
aI566
aI573
aI571
aI563
aI562
aI557
aI548
aI545
aI536
aI535
aI521
aI520
aI512
aI512
aI497
aI492
aI486
aI482
aI475
aI469
aI473
aI466
aI464
aI464
aI456
aI454
aI453
aI447
aI446
aI442
aI441
aI441
aI440
aI439
aI439
aI441
aI443
aI444
aI443
aI444
aI444
aI444
aI444
aI446
aI445
aI443
aI442
aI442
aI444
aI446
aI448
aI449
aI449
aI447
aI448
aI451
aI449
aI452
aI452
aI453
aI453
aI453
aI454
aI453
aI455
aI456
aI456
aI455
aI455
aI453
aI454
aI454
aI459
aI463
aI462
aI463
aI463
aI463
aI463
aI464
aI463
aI464
aI467
aI467
aI466
aI465
aI465
aI464
aI466
aI468
aI468
aI468
aI468
aI469
aI469
aI468
aI468
aI468
aI469
aI469
aI468
aI468
aI468
aI468
aI467
aI467
aI467
aI468
aI467
aI467
aI468
aI468
aI467
aI468
aI468
aI467
aI467
aI468
aI469
aI469
aI469
aI468
aI468
aI468
aI467
aI470
aI471
aI471
aI471
aI471
aI472
aI471
aI471
aI473
aI473
aI472
aI472
aI471
aI473
aI473
aI474
aI474
aI473
aI474
aI474
aI474
aI473
aI473
aI473
aI474
aI473
aI474
aI473
aI473
aI473
aI473
aI472
aI473
aI473
aI473
aI473
aI473
aI473
aI473
aI473
aI472
aI472
aI472
aI472
aI472
aI471
aI471
aI471
aI471
aI470
aI470
aI470
aI470
aI470
aI469
aI469
aI469
aI469
aI468
aI468
aI468
aI469
aI469
aI469
aI469
aI468
aI468
aI468
aI468
aI468
aI468
aI468
aI468
aI468
aI468
aI469
aI469
aI468
aI468
aI469
aI469
aI469
aI469
aI469
aI468
aI469
aI469
aI468
aI468
aI468
aI468
aI468
aI468
aI468
aI469
aI470
aI470
aI471
aI470
aI470
aI470
aI470
aI470
aI470
aI470
aI470
aI470
aI470
aI470
aI470
aI470
aI470
aI471
aI471
asS'pos'
p7
(lp8
I0
aI3
aI10
aI14
aI24
aI33
aI42
aI51
aI61
aI71
aI81
aI91
aI101
aI111
aI120
aI130
aI138
aI148
aI158
aI168
aI178
aI187
aI197
aI206
aI216
aI226
aI236
aI246
aI256
aI266
aI276
aI285
aI294
aI304
aI314
aI323
aI328
aI328
aI331
aI332
aI334
aI335
aI335
aI338
aI340
aI341
aI341
aI342
aI346
aI352
aI356
aI358
aI362
aI366
aI368
aI370
aI377
aI381
aI381
aI383
aI383
aI384
aI385
aI389
aI389
aI389
aI392
aI393
aI397
aI398
aI398
aI398
aI398
aI399
aI399
aI402
aI403
aI407
aI409
aI409
aI412
aI412
aI412
aI414
aI414
aI414
aI414
aI414
aI414
aI414
aI414
aI417
aI419
aI419
aI419
aI419
aI419
aI419
aI419
aI419
aI419
aI419
aI419
aI419
aI419
aI419
aI419
aI419
aI419
aI419
aI420
aI420
aI422
aI423
aI425
aI425
aI425
aI425
aI425
aI426
aI427
aI427
aI427
aI427
aI427
aI427
aI427
aI431
aI435
aI435
aI437
aI437
aI438
aI438
aI438
aI438
aI439
aI441
aI442
aI442
aI442
aI442
aI442
aI443
aI445
aI445
aI445
aI445
aI446
aI446
aI446
aI446
aI446
aI447
aI447
aI447
aI447
aI447
aI447
aI447
aI447
aI447
aI448
aI448
aI448
aI449
aI449
aI449
aI450
aI450
aI450
aI450
aI451
aI452
aI452
aI452
aI452
aI452
aI452
aI452
aI454
aI455
aI456
aI456
aI456
aI457
aI457
aI457
aI458
aI458
aI458
aI458
aI458
aI460
aI460
aI461
aI461
aI461
aI462
aI462
aI462
aI462
aI462
aI462
aI463
aI463
aI463
aI463
aI463
aI463
aI463
aI463
aI464
aI464
aI464
aI464
aI464
aI464
aI464
aI464
aI464
aI464
aI464
aI464
aI464
aI464
aI464
aI464
aI464
aI464
aI464
aI464
aI464
aI464
aI464
aI464
aI464
aI464
aI464
aI464
aI464
aI465
aI465
aI465
aI465
aI465
aI465
aI465
aI465
aI465
aI465
aI465
aI465
aI465
aI465
aI466
aI466
aI466
aI466
aI467
aI467
aI467
aI467
aI467
aI467
aI467
aI467
aI467
aI467
aI467
aI467
aI467
aI467
aI467
aI468
aI469
aI469
aI470
aI470
aI470
aI470
aI470
aI470
aI470
aI470
aI470
aI470
aI470
aI470
aI470
aI470
aI470
aI471
aI471
aI472
assS'supervised'
p9
(dp10
g3
(lp11
I0
aI10
aI20
aI30
aI40
aI50
aI60
aI70
aI80
aI90
aI100
aI110
aI120
aI130
aI140
aI150
aI160
aI170
aI180
aI190
aI200
aI210
aI220
aI230
aI240
aI250
aI260
aI270
aI280
aI290
aI300
aI310
aI320
aI330
aI340
aI350
aI360
aI370
aI380
aI390
aI400
aI410
aI420
aI430
aI440
aI450
aI460
aI470
aI480
aI490
aI500
aI510
aI520
aI530
aI540
aI550
aI560
aI570
aI580
aI590
aI600
aI610
aI620
aI630
aI640
aI650
aI660
aI670
aI680
aI690
aI700
aI710
aI720
aI730
aI740
aI750
aI760
aI770
aI780
aI790
aI800
aI810
aI820
aI830
aI840
aI850
aI860
aI870
aI880
aI890
aI900
aI910
aI920
aI930
aI940
aI950
aI960
aI970
aI980
aI990
aI1000
aI1010
aI1020
aI1030
aI1040
aI1050
aI1060
aI1070
aI1080
aI1090
aI1100
aI1110
aI1120
aI1130
aI1140
aI1150
aI1160
aI1170
aI1180
aI1190
aI1200
aI1210
aI1220
aI1230
aI1240
aI1250
aI1260
aI1270
aI1280
aI1290
aI1300
aI1310
aI1320
aI1330
aI1340
aI1350
aI1360
aI1370
aI1380
aI1390
aI1400
aI1410
aI1420
aI1430
aI1440
aI1450
aI1460
aI1470
aI1480
aI1490
aI1500
aI1510
aI1520
aI1530
aI1540
aI1550
aI1560
aI1570
aI1580
aI1590
aI1600
aI1610
aI1620
aI1630
aI1640
aI1650
aI1660
aI1670
aI1680
aI1690
aI1700
aI1710
aI1720
aI1730
aI1740
aI1750
aI1760
aI1770
aI1780
aI1790
aI1800
aI1810
aI1820
aI1830
aI1840
aI1850
aI1860
aI1870
aI1880
aI1890
aI1900
aI1910
aI1920
aI1930
aI1940
aI1950
aI1960
aI1970
aI1980
aI1990
aI2000
aI2010
aI2020
aI2030
aI2040
aI2050
aI2060
aI2070
aI2080
aI2090
aI2100
aI2110
aI2120
aI2130
aI2140
aI2150
aI2160
aI2170
aI2180
aI2190
aI2200
aI2210
aI2220
aI2230
aI2240
aI2250
aI2260
aI2270
aI2280
aI2290
aI2300
aI2310
aI2320
aI2330
aI2340
aI2350
aI2360
aI2370
aI2380
aI2390
aI2400
aI2410
aI2420
aI2430
aI2440
aI2450
aI2460
aI2470
aI2480
aI2490
aI2500
aI2510
aI2520
aI2530
aI2540
aI2550
aI2560
aI2570
aI2580
aI2590
aI2600
aI2610
aI2620
aI2630
aI2640
aI2650
aI2660
aI2670
aI2680
aI2690
aI2700
aI2710
aI2720
aI2730
aI2740
aI2750
aI2760
aI2770
aI2780
aI2790
aI2800
aI2810
aI2820
aI2830
aI2840
aI2850
aI2860
aI2870
aI2880
aI2890
aI2900
aI2910
aI2920
aI2930
aI2940
aI2950
aI2960
aI2968
asg5
(lp12
I250
aI250
aI253
aI257
aI261
aI265
aI270
aI274
aI279
aI283
aI286
aI287
aI290
aI291
aI293
aI296
aI299
aI304
aI309
aI313
aI316
aI319
aI319
aI322
aI325
aI327
aI330
aI332
aI338
aI342
aI346
aI350
aI353
aI359
aI361
aI364
aI367
aI371
aI374
aI380
aI383
aI388
aI392
aI392
aI393
aI394
aI397
aI394
aI395
aI395
aI399
aI401
aI404
aI409
aI412
aI413
aI415
aI415
aI418
aI420
aI420
aI420
aI420
aI420
aI420
aI420
aI420
aI420
aI419
aI419
aI419
aI419
aI419
aI419
aI419
aI419
aI418
aI418
aI418
aI418
aI418
aI418
aI418
aI418
aI418
aI418
aI418
aI418
aI417
aI417
aI417
aI417
aI417
aI417
aI417
aI417
aI417
aI417
aI416
aI416
aI416
aI416
aI416
aI416
aI416
aI416
aI416
aI416
aI415
aI415
aI415
aI415
aI415
aI414
aI414
aI414
aI414
aI414
aI414
aI414
aI414
aI414
aI414
aI414
aI413
aI413
aI413
aI413
aI413
aI413
aI413
aI413
aI413
aI412
aI412
aI412
aI412
aI412
aI412
aI412
aI412
aI412
aI411
aI411
aI411
aI411
aI411
aI411
aI411
aI411
aI411
aI410
aI410
aI410
aI410
aI410
aI410
aI410
aI409
aI409
aI409
aI409
aI409
aI409
aI409
aI409
aI408
aI408
aI408
aI408
aI408
aI408
aI407
aI407
aI407
aI407
aI407
aI407
aI407
aI407
aI407
aI406
aI406
aI406
aI406
aI406
aI406
aI406
aI406
aI405
aI405
aI405
aI405
aI405
aI405
aI405
aI405
aI405
aI405
aI404
aI404
aI404
aI404
aI404
aI404
aI404
aI404
aI404
aI404
aI404
aI404
aI403
aI403
aI403
aI403
aI403
aI403
aI403
aI403
aI403
aI403
aI403
aI403
aI403
aI402
aI402
aI402
aI402
aI402
aI402
aI402
aI402
aI401
aI401
aI401
aI401
aI401
aI401
aI401
aI401
aI401
aI401
aI401
aI400
aI400
aI400
aI400
aI400
aI400
aI400
aI400
aI400
aI400
aI400
aI400
aI399
aI399
aI399
aI399
aI399
aI399
aI399
aI399
aI399
aI399
aI399
aI399
aI399
aI398
aI398
aI398
aI398
aI398
aI399
aI399
aI400
aI400
aI404
aI407
aI410
aI415
aI418
aI422
aI426
aI429
aI432
aI440
aI442
aI445
aI448
aI450
aI451
aI454
aI455
aI458
aI464
aI471
aI471
asg7
(lp13
I0
aI7
aI16
aI24
aI32
aI41
aI48
aI58
aI66
aI73
aI79
aI86
aI91
aI97
aI103
aI109
aI119
aI128
aI136
aI142
aI149
aI153
aI159
aI166
aI171
aI178
aI184
aI194
aI202
aI211
aI219
aI226
aI236
aI241
aI249
aI257
aI265
aI271
aI280
aI287
aI296
aI305
aI308
aI313
aI317
aI323
aI325
aI331
aI333
aI341
aI347
aI354
aI362
aI370
aI374
aI380
aI383
aI390
aI395
aI395
aI395
aI395
aI395
aI395
aI395
aI395
aI395
aI395
aI395
aI395
aI395
aI395
aI395
aI395
aI395
aI395
aI395
aI395
aI395
aI395
aI395
aI395
aI395
aI395
aI395
aI395
aI395
aI395
aI395
aI395
aI395
aI395
aI395
aI395
aI395
aI395
aI395
aI395
aI395
aI395
aI395
aI395
aI395
aI395
aI395
aI395
aI395
aI395
aI395
aI395
aI395
aI395
aI395
aI395
aI395
aI395
aI395
aI395
aI395
aI395
aI395
aI395
aI395
aI395
aI395
aI395
aI395
aI395
aI395
aI395
aI395
aI395
aI395
aI395
aI395
aI395
aI395
aI395
aI395
aI395
aI395
aI395
aI395
aI395
aI395
aI395
aI395
aI395
aI395
aI395
aI395
aI395
aI395
aI395
aI395
aI395
aI395
aI395
aI395
aI395
aI395
aI395
aI395
aI395
aI395
aI395
aI395
aI395
aI395
aI395
aI395
aI395
aI395
aI395
aI395
aI395
aI395
aI395
aI395
aI395
aI395
aI395
aI395
aI395
aI395
aI395
aI395
aI395
aI395
aI395
aI395
aI395
aI395
aI395
aI395
aI395
aI395
aI395
aI395
aI395
aI395
aI395
aI395
aI395
aI395
aI395
aI395
aI395
aI395
aI395
aI395
aI395
aI395
aI395
aI395
aI395
aI395
aI395
aI395
aI395
aI395
aI395
aI395
aI395
aI395
aI395
aI395
aI395
aI395
aI395
aI395
aI395
aI395
aI395
aI395
aI395
aI395
aI395
aI395
aI395
aI395
aI395
aI395
aI395
aI395
aI395
aI395
aI395
aI395
aI395
aI395
aI395
aI395
aI395
aI395
aI395
aI395
aI395
aI395
aI395
aI395
aI395
aI395
aI395
aI395
aI395
aI395
aI395
aI395
aI395
aI395
aI395
aI396
aI396
aI397
aI397
aI401
aI404
aI408
aI413
aI416
aI420
aI424
aI427
aI431
aI439
aI441
aI444
aI447
aI449
aI451
aI454
aI455
aI458
aI464
aI471
aI471
aI472
assS'true'
p14
(lp15
I472
aI2968
as.