(dp0
S'active'
p1
(dp2
S'x'
p3
(lp4
I0
aI10
aI20
aI30
aI40
aI50
aI60
aI70
aI80
aI90
aI100
aI110
aI120
aI130
aI140
aI150
aI160
aI170
aI180
aI190
aI200
aI210
aI220
aI230
aI240
aI250
aI260
aI270
aI280
aI290
aI300
aI310
aI320
aI330
aI340
aI350
aI360
aI370
aI380
aI390
aI400
aI410
aI420
aI430
aI440
aI450
aI460
aI470
aI480
aI490
aI500
aI510
aI520
aI530
aI540
aI550
aI560
aI570
aI580
aI590
aI600
aI610
aI620
aI630
aI640
aI650
aI660
aI670
aI680
aI690
aI700
aI710
aI720
aI730
aI740
aI750
aI760
aI770
aI780
aI790
aI800
aI810
aI820
aI830
aI840
aI850
aI860
aI870
aI880
aI890
aI900
aI910
aI920
aI930
aI940
aI950
aI960
aI970
aI980
aI990
aI1000
aI1010
aI1020
aI1030
aI1040
aI1050
aI1060
aI1070
aI1080
aI1090
aI1100
aI1110
aI1120
aI1130
aI1140
aI1150
aI1160
aI1170
aI1180
aI1190
aI1200
aI1210
aI1220
aI1230
aI1240
aI1250
aI1260
aI1270
aI1280
aI1290
aI1300
aI1310
aI1320
aI1330
aI1340
aI1350
aI1360
aI1370
aI1380
aI1390
aI1400
aI1410
aI1420
aI1430
aI1440
aI1450
aI1460
aI1470
aI1480
aI1490
aI1500
aI1510
aI1520
aI1530
aI1540
aI1550
aI1560
aI1570
aI1580
aI1590
aI1600
aI1610
aI1620
aI1630
aI1640
aI1650
aI1660
aI1670
aI1680
aI1690
aI1700
aI1710
aI1720
aI1730
aI1740
aI1750
aI1760
aI1770
aI1780
aI1790
aI1800
aI1810
aI1820
aI1830
aI1840
aI1850
aI1860
aI1870
aI1880
aI1890
aI1900
aI1910
aI1920
aI1930
aI1940
aI1950
aI1960
aI1970
aI1980
aI1990
aI2000
aI2010
aI2020
aI2030
aI2040
aI2050
aI2060
aI2070
aI2080
aI2090
aI2100
aI2110
aI2120
aI2130
aI2140
aI2150
aI2160
aI2170
aI2180
aI2190
aI2200
aI2210
aI2220
aI2230
aI2240
aI2250
aI2260
aI2270
aI2280
aI2290
aI2300
aI2310
aI2320
aI2330
aI2340
aI2350
aI2360
aI2370
aI2380
aI2390
aI2400
aI2410
aI2420
aI2430
aI2440
aI2450
aI2460
aI2470
aI2480
aI2490
aI2500
aI2510
aI2520
aI2530
aI2540
aI2550
aI2560
aI2570
aI2580
aI2590
aI2600
aI2610
aI2620
aI2630
aI2640
aI2650
aI2660
aI2670
aI2680
aI2690
aI2700
aI2710
aI2720
aI2730
aI2740
aI2750
aI2760
aI2770
aI2780
aI2790
aI2800
aI2810
aI2820
aI2830
aI2840
aI2850
aI2860
aI2870
aI2880
aI2890
aI2900
aI2910
aI2920
aI2930
aI2940
aI2950
aI2960
aI2970
aI2980
aI2990
aI3000
aI3010
aI3020
aI3030
aI3040
aI3050
aI3060
aI3070
aI3080
aI3090
aI3100
aI3110
aI3120
aI3130
aI3140
aI3150
aI3160
aI3170
aI3180
aI3190
aI3200
aI3210
aI3220
aI3230
aI3240
aI3250
aI3260
aI3270
aI3280
aI3290
aI3300
aI3310
aI3320
aI3330
aI3340
aI3350
aI3360
aI3370
aI3380
aI3390
aI3400
aI3410
aI3420
aI3430
aI3440
aI3450
aI3460
aI3470
aI3480
aI3490
aI3500
aI3510
aI3520
aI3530
aI3540
aI3550
aI3560
aI3570
aI3580
aI3590
aI3600
aI3610
aI3620
aI3630
aI3640
aI3650
aI3660
aI3670
aI3680
aI3690
aI3700
aI3710
aI3720
aI3730
aI3740
aI3750
aI3760
aI3770
aI3780
aI3790
aI3800
aI3810
aI3820
aI3830
aI3840
aI3850
aI3860
aI3870
aI3880
aI3890
aI3900
aI3910
aI3920
aI3930
aI3940
aI3950
aI3960
aI3970
aI3980
aI3990
aI4000
aI4010
aI4020
aI4030
aI4040
aI4050
aI4060
aI4070
aI4080
aI4090
aI4100
aI4110
aI4120
aI4130
aI4140
aI4150
aI4160
aI4170
aI4180
aI4190
aI4200
aI4210
aI4220
aI4230
aI4240
aI4250
aI4260
aI4270
aI4280
aI4290
aI4300
aI4310
aI4320
aI4330
aI4340
aI4350
aI4360
aI4370
aI4380
aI4390
aI4400
aI4410
aI4420
aI4430
aI4440
aI4450
aI4460
aI4470
aI4480
aI4490
aI4500
aI4510
aI4520
aI4530
aI4540
aI4550
aI4560
aI4570
aI4580
aI4590
aI4600
aI4610
aI4620
aI4630
aI4640
aI4650
aI4660
aI4670
aI4680
aI4690
aI4700
aI4710
aI4720
aI4730
aI4740
aI4750
aI4760
aI4770
aI4780
aI4790
aI4800
aI4810
aI4820
aI4830
aI4840
aI4850
aI4860
aI4870
aI4880
aI4890
aI4900
aI4910
aI4920
aI4930
aI4940
aI4950
aI4960
aI4970
aI4980
aI4990
aI5000
aI5010
aI5020
aI5030
aI5040
aI5050
aI5060
aI5070
aI5080
aI5090
aI5100
aI5110
aI5120
aI5130
aI5140
aI5150
aI5160
aI5170
aI5180
aI5190
aI5200
aI5210
aI5220
aI5230
aI5240
aI5250
aI5260
aI5270
aI5280
aI5290
aI5300
aI5310
aI5320
aI5330
aI5340
aI5350
aI5360
aI5370
aI5380
aI5390
aI5400
aI5410
aI5420
aI5430
aI5440
aI5450
aI5460
aI5470
aI5480
aI5490
aI5500
aI5510
aI5520
aI5530
aI5540
aI5550
aI5560
aI5570
aI5580
aI5590
aI5600
aI5610
aI5620
aI5630
aI5640
aI5650
aI5660
aI5670
aI5680
aI5690
aI5700
aI5710
aI5720
aI5730
aI5740
aI5750
aI5760
aI5770
aI5780
aI5790
aI5800
aI5810
aI5820
aI5830
aI5840
aI5850
aI5860
aI5870
aI5880
aI5890
aI5900
aI5910
aI5920
aI5930
aI5940
aI5950
aI5960
aI5970
aI5980
aI5990
aI6000
aI6010
aI6020
aI6030
aI6040
aI6050
aI6060
aI6070
aI6080
aI6090
aI6100
aI6110
aI6120
aI6130
aI6140
aI6150
aI6160
aI6170
aI6180
aI6190
aI6200
aI6210
aI6220
aI6230
aI6240
aI6250
aI6260
aI6270
aI6280
aI6290
aI6300
aI6310
aI6320
aI6330
aI6340
aI6350
aI6360
aI6370
aI6380
aI6390
aI6400
aI6410
aI6420
aI6430
aI6440
aI6450
aI6460
aI6470
aI6480
aI6490
aI6500
aI6510
aI6520
aI6530
aI6540
aI6550
aI6560
aI6570
aI6580
aI6590
aI6600
aI6610
aI6620
aI6630
aI6640
aI6650
aI6660
aI6670
aI6680
aI6690
aI6700
aI6710
aI6720
aI6730
aI6740
aI6750
aI6760
aI6770
aI6780
aI6790
aI6800
aI6810
aI6820
aI6830
aI6840
aI6850
aI6860
aI6870
aI6880
aI6890
aI6900
aI6910
aI6920
aI6930
aI6940
aI6950
aI6960
aI6970
aI6980
aI6990
aI7000
aI7010
aI7020
aI7030
aI7040
aI7050
aI7060
aI7070
aI7080
aI7090
aI7100
aI7110
aI7120
aI7130
aI7140
aI7150
aI7160
aI7170
aI7180
aI7190
aI7200
aI7210
aI7220
aI7230
aI7240
aI7250
aI7260
aI7270
aI7280
aI7290
aI7300
aI7310
aI7320
aI7330
aI7340
aI7350
aI7360
aI7370
aI7380
aI7390
aI7400
aI7410
aI7420
aI7430
aI7440
aI7450
aI7460
aI7470
aI7480
aI7490
aI7500
aI7510
aI7520
aI7530
aI7540
aI7550
aI7560
aI7570
aI7580
aI7590
aI7600
aI7610
aI7620
aI7630
aI7640
aI7650
aI7660
aI7670
aI7680
aI7690
aI7700
aI7710
aI7720
aI7730
aI7740
aI7750
aI7760
aI7770
aI7780
aI7790
aI7800
aI7810
aI7820
aI7830
aI7840
aI7850
aI7860
aI7870
aI7880
aI7890
aI7900
aI7910
aI7920
aI7930
aI7940
aI7950
aI7960
aI7970
aI7980
aI7990
aI8000
aI8010
aI8020
aI8030
aI8040
aI8050
aI8060
aI8070
aI8080
aI8090
aI8100
aI8110
aI8120
aI8130
aI8140
aI8150
aI8160
aI8170
aI8180
aI8190
aI8200
aI8210
aI8220
aI8230
aI8240
aI8250
aI8260
aI8270
aI8280
aI8290
aI8300
aI8310
aI8320
aI8330
aI8340
aI8350
aI8360
aI8370
aI8380
aI8390
aI8400
aI8410
aI8420
aI8430
aI8440
aI8450
aI8460
aI8470
aI8480
aI8490
aI8500
aI8510
aI8520
aI8530
aI8540
aI8550
aI8560
aI8570
aI8580
aI8590
aI8600
aI8610
aI8620
aI8630
aI8640
aI8650
aI8660
aI8670
aI8680
aI8690
aI8700
aI8710
aI8720
aI8730
aI8740
aI8750
aI8760
aI8770
aI8780
aI8790
aI8800
aI8810
aI8820
aI8830
aI8840
aI8850
aI8860
aI8870
aI8880
aI8890
aI8900
aI8910
aI8920
aI8930
aI8940
aI8950
aI8960
aI8970
aI8980
aI8990
aI9000
aI9010
aI9020
aI9030
aI9040
aI9050
aI9060
aI9070
aI9080
aI9090
aI9100
aI9110
aI9120
aI9130
aI9140
aI9150
aI9160
aI9170
aI9180
aI9190
aI9200
aI9210
aI9220
aI9230
aI9240
aI9250
asS'est'
p5
(lp6
I0
aI0
aI83
aI86
aI97
aI91
aI96
aI95
aI111
aI113
aI68
aI60
aI60
aI57
aI53
aI52
aI53
aI56
aI51
aI58
aI71
aI69
aI67
aI62
aI67
aI68
aI82
aI76
aI83
aI86
aI88
aI90
aI91
aI91
aI90
aI89
aI91
aI90
aI93
aI95
aI95
aI95
aI95
aI96
aI98
aI99
aI102
aI103
aI107
aI116
aI111
aI117
aI121
aI118
aI120
aI120
aI122
aI126
aI126
aI128
aI127
aI128
aI126
aI128
aI127
aI129
aI128
aI131
aI131
aI131
aI130
aI134
aI141
aI145
aI152
aI156
aI149
aI156
aI154
aI162
aI156
aI158
aI162
aI163
aI164
aI163
aI164
aI170
aI162
aI162
aI161
aI162
aI160
aI163
aI165
aI164
aI176
aI165
aI166
aI170
aI167
aI167
aI166
aI167
aI168
aI166
aI166
aI171
aI169
aI167
aI168
aI173
aI168
aI167
aI166
aI169
aI172
aI169
aI172
aI173
aI175
aI174
aI175
aI180
aI180
aI182
aI183
aI182
aI180
aI183
aI182
aI183
aI180
aI182
aI182
aI182
aI184
aI183
aI185
aI184
aI186
aI185
aI186
aI186
aI189
aI190
aI188
aI190
aI191
aI198
aI198
aI197
aI198
aI200
aI200
aI200
aI199
aI199
aI199
aI199
aI201
aI201
aI204
aI203
aI203
aI204
aI204
aI205
aI204
aI205
aI204
aI205
aI205
aI206
aI207
aI210
aI211
aI209
aI212
aI213
aI212
aI214
aI213
aI214
aI213
aI214
aI213
aI213
aI213
aI213
aI215
aI215
aI215
aI214
aI215
aI216
aI218
aI220
aI221
aI221
aI221
aI222
aI221
aI222
aI221
aI223
aI223
aI222
aI222
aI224
aI224
aI224
aI226
aI225
aI225
aI224
aI225
aI225
aI224
aI225
aI224
aI225
aI225
aI224
aI225
aI225
aI226
aI226
aI225
aI225
aI226
aI227
aI227
aI226
aI227
aI227
aI230
aI230
aI230
aI230
aI230
aI230
aI230
aI230
aI230
aI230
aI230
aI230
aI230
aI230
aI230
aI230
aI230
aI231
aI231
aI231
aI231
aI231
aI231
aI231
aI232
aI232
aI232
aI234
aI235
aI235
aI235
aI238
aI238
aI238
aI238
aI239
aI240
aI242
aI242
aI241
aI242
aI241
aI243
aI244
aI244
aI243
aI244
aI243
aI243
aI244
aI243
aI244
aI245
aI244
aI245
aI245
aI245
aI245
aI245
aI245
aI245
aI245
aI245
aI245
aI244
aI244
aI244
aI244
aI244
aI244
aI244
aI244
aI244
aI244
aI244
aI244
aI244
aI244
aI244
aI244
aI244
aI244
aI244
aI244
aI244
aI244
aI244
aI244
aI244
aI244
aI244
aI244
aI244
aI244
aI245
aI245
aI245
aI245
aI245
aI246
aI247
aI247
aI248
aI248
aI248
aI248
aI248
aI248
aI248
aI248
aI248
aI248
aI248
aI248
aI248
aI249
aI250
aI251
aI252
aI251
aI252
aI252
aI252
aI252
aI251
aI252
aI251
aI252
aI251
aI251
aI251
aI251
aI251
aI251
aI251
aI251
aI251
aI251
aI251
aI251
aI251
aI251
aI251
aI251
aI251
aI251
aI251
aI251
aI251
aI251
aI251
aI251
aI251
aI251
aI251
aI250
aI251
aI251
aI251
aI251
aI251
aI251
aI251
aI251
aI251
aI250
aI250
aI251
aI251
aI251
aI251
aI251
aI251
aI251
aI251
aI251
aI251
aI251
aI251
aI250
aI250
aI251
aI251
aI251
aI251
aI251
aI250
aI251
aI250
aI251
aI250
aI251
aI251
aI250
aI250
aI251
aI250
aI250
aI251
aI250
aI250
aI251
aI250
aI250
aI250
aI251
aI251
aI250
aI251
aI250
aI251
aI250
aI251
aI250
aI251
aI251
aI250
aI250
aI250
aI250
aI250
aI250
aI250
aI250
aI251
aI250
aI250
aI251
aI250
aI250
aI250
aI251
aI250
aI250
aI250
aI250
aI250
aI250
aI250
aI250
aI250
aI250
aI250
aI250
aI250
aI250
aI250
aI250
aI250
aI250
aI251
aI250
aI250
aI250
aI250
aI250
aI250
aI250
aI250
aI250
aI250
aI250
aI250
aI250
aI250
aI250
aI250
aI250
aI250
aI250
aI250
aI250
aI250
aI250
aI250
aI250
aI250
aI250
aI250
aI250
aI250
aI250
aI251
aI251
aI251
aI251
aI251
aI251
aI251
aI251
aI251
aI251
aI251
aI251
aI251
aI251
aI251
aI251
aI251
aI251
aI251
aI251
aI251
aI251
aI251
aI251
aI251
aI251
aI251
aI251
aI251
aI251
aI251
aI250
aI250
aI250
aI250
aI250
aI250
aI250
aI250
aI250
aI250
aI250
aI250
aI250
aI250
aI250
aI250
aI250
aI250
aI250
aI250
aI250
aI250
aI250
aI250
aI250
aI250
aI249
aI249
aI249
aI249
aI249
aI249
aI249
aI249
aI249
aI249
aI249
aI249
aI250
aI250
aI250
aI250
aI250
aI250
aI250
aI250
aI250
aI250
aI250
aI249
aI249
aI249
aI249
aI249
aI250
aI250
aI250
aI250
aI250
aI250
aI251
aI252
aI252
aI252
aI253
aI259
aI261
aI265
aI261
aI265
aI262
aI257
aI261
aI260
aI263
aI268
aI274
aI278
aI281
aI279
aI282
aI285
aI281
aI277
aI274
aI270
aI269
aI270
aI270
aI270
aI270
aI271
aI271
aI271
aI269
aI262
aI259
aI259
aI258
aI256
aI255
aI254
aI253
aI254
aI254
aI253
aI253
aI251
aI251
aI251
aI250
aI250
aI250
aI250
aI250
aI250
aI250
aI251
aI251
aI250
aI250
aI250
aI250
aI250
aI249
aI249
aI249
aI249
aI249
aI249
aI249
aI249
aI249
aI249
aI249
aI249
aI249
aI249
aI249
aI249
aI249
aI249
aI249
aI249
aI249
aI249
aI249
aI249
aI249
aI249
aI249
aI250
aI250
aI250
aI250
aI250
aI250
aI250
aI250
aI250
aI250
aI249
aI249
aI249
aI250
aI250
aI250
aI250
aI251
aI253
aI252
aI293
aI273
aI258
aI258
aI257
aI257
aI262
aI262
aI261
aI261
aI261
aI260
aI260
aI260
aI260
aI260
aI260
aI260
aI261
aI261
aI262
aI261
aI261
aI262
aI262
aI262
aI261
aI261
aI261
aI266
aI266
aI266
aI265
aI265
aI265
aI265
aI260
aI260
aI259
aI254
aI254
aI254
aI254
aI254
aI254
aI254
aI253
aI256
aI259
aI259
aI259
aI259
aI258
aI258
aI256
aI256
aI255
aI255
aI255
aI255
aI255
aI257
aI259
aI258
aI338
aI333
aI260
aI259
aI282
aI281
aI281
aI265
aI255
aI255
aI255
aI254
aI254
aI254
aI254
aI255
aI256
aI255
aI256
aI256
aI253
aI253
aI253
aI252
aI252
aI252
aI252
aI253
aI254
aI254
aI253
aI257
aI262
aI257
aI253
aI253
aI257
aI257
aI256
aI253
aI252
aI252
aI254
aI253
aI252
aI252
aI252
aI253
aI252
aI252
aI252
aI252
aI252
aI254
aI254
aI251
aI251
aI251
aI251
aI251
aI251
aI251
aI251
aI251
aI251
aI251
aI251
aI250
aI250
aI250
aI250
aI250
aI250
aI251
aI250
aI250
aI250
aI250
aI250
aI250
aI250
aI250
aI250
aI250
aI250
aI250
aI250
aI250
aI250
aI250
aI250
aI250
aI250
aI250
aI250
aI250
aI250
aI250
aI250
aI250
aI250
aI250
aI250
aI250
aI250
aI250
aI250
aI250
aI250
aI250
aI250
aI250
aI250
aI250
aI250
aI250
aI250
aI250
aI250
aI250
aI250
aI250
aI250
aI250
aI250
aI250
aI250
aI250
aI250
aI250
aI250
aI252
aI253
aI255
aI256
aI257
aI257
aI257
aI257
aI257
aI257
aI257
asS'pos'
p7
(lp8
I0
aI2
aI2
aI2
aI3
aI3
aI11
aI21
aI27
aI30
aI35
aI38
aI38
aI38
aI38
aI39
aI41
aI43
aI48
aI53
aI56
aI57
aI57
aI60
aI63
aI68
aI70
aI75
aI77
aI79
aI82
aI83
aI83
aI83
aI83
aI85
aI85
aI87
aI90
aI90
aI90
aI91
aI92
aI93
aI95
aI97
aI98
aI101
aI104
aI105
aI109
aI112
aI113
aI115
aI115
aI117
aI119
aI121
aI122
aI122
aI123
aI123
aI124
aI124
aI124
aI124
aI126
aI126
aI127
aI127
aI129
aI134
aI140
aI144
aI145
aI145
aI149
aI150
aI152
aI152
aI154
aI158
aI158
aI158
aI158
aI158
aI158
aI158
aI158
aI158
aI158
aI158
aI160
aI161
aI161
aI162
aI162
aI163
aI163
aI163
aI163
aI163
aI163
aI163
aI163
aI163
aI163
aI163
aI164
aI164
aI164
aI164
aI164
aI164
aI164
aI165
aI165
aI165
aI165
aI166
aI169
aI170
aI173
aI174
aI175
aI175
aI175
aI175
aI176
aI176
aI176
aI176
aI176
aI176
aI176
aI177
aI178
aI179
aI179
aI179
aI179
aI180
aI181
aI183
aI184
aI184
aI184
aI185
aI191
aI192
aI192
aI192
aI192
aI192
aI193
aI193
aI193
aI193
aI194
aI194
aI195
aI197
aI197
aI197
aI197
aI198
aI198
aI198
aI198
aI198
aI199
aI199
aI200
aI201
aI204
aI204
aI204
aI207
aI207
aI207
aI208
aI208
aI208
aI208
aI208
aI208
aI208
aI209
aI209
aI210
aI210
aI210
aI210
aI211
aI211
aI213
aI215
aI215
aI216
aI216
aI216
aI216
aI217
aI217
aI217
aI217
aI217
aI217
aI219
aI219
aI219
aI220
aI220
aI220
aI220
aI220
aI220
aI220
aI220
aI220
aI220
aI220
aI220
aI220
aI220
aI221
aI221
aI221
aI223
aI224
aI224
aI224
aI224
aI225
aI225
aI227
aI228
aI228
aI228
aI228
aI228
aI228
aI228
aI228
aI228
aI228
aI228
aI228
aI228
aI228
aI228
aI228
aI229
aI229
aI229
aI229
aI229
aI229
aI229
aI230
aI230
aI230
aI232
aI233
aI233
aI233
aI236
aI236
aI236
aI236
aI237
aI238
aI239
aI239
aI239
aI239
aI239
aI241
aI241
aI241
aI241
aI241
aI241
aI241
aI241
aI241
aI241
aI242
aI242
aI242
aI242
aI242
aI242
aI242
aI242
aI242
aI242
aI242
aI242
aI242
aI242
aI242
aI242
aI242
aI242
aI242
aI242
aI242
aI242
aI242
aI242
aI242
aI242
aI242
aI242
aI242
aI242
aI242
aI242
aI242
aI242
aI242
aI242
aI242
aI242
aI242
aI242
aI242
aI242
aI243
aI243
aI243
aI243
aI243
aI244
aI245
aI245
aI246
aI246
aI246
aI246
aI246
aI246
aI246
aI246
aI246
aI246
aI246
aI246
aI246
aI247
aI248
aI249
aI249
aI249
aI249
aI249
aI249
aI249
aI249
aI249
aI249
aI249
aI249
aI249
aI249
aI249
aI249
aI249
aI249
aI249
aI249
aI249
aI249
aI249
aI249
aI249
aI249
aI249
aI249
aI249
aI249
aI249
aI249
aI249
aI249
aI249
aI249
aI249
aI249
aI249
aI249
aI249
aI249
aI249
aI249
aI249
aI249
aI249
aI249
aI249
aI249
aI249
aI249
aI249
aI249
aI249
aI249
aI249
aI249
aI249
aI249
aI249
aI249
aI249
aI249
aI249
aI249
aI249
aI249
aI249
aI249
aI249
aI249
aI249
aI249
aI249
aI249
aI249
aI249
aI249
aI249
aI249
aI249
aI249
aI249
aI249
aI249
aI249
aI249
aI249
aI249
aI249
aI249
aI249
aI249
aI249
aI249
aI249
aI249
aI249
aI249
aI249
aI249
aI249
aI249
aI249
aI249
aI249
aI249
aI249
aI249
aI249
aI249
aI249
aI249
aI249
aI249
aI249
aI249
aI249
aI249
aI249
aI249
aI249
aI249
aI249
aI249
aI249
aI249
aI249
aI249
aI249
aI249
aI249
aI249
aI249
aI249
aI249
aI249
aI249
aI249
aI249
aI249
aI249
aI249
aI249
aI249
aI249
aI249
aI249
aI249
aI249
aI249
aI249
aI249
aI249
aI249
aI249
aI249
aI249
aI249
aI249
aI249
aI249
aI249
aI249
aI249
aI249
aI249
aI249
aI249
aI249
aI249
aI249
aI249
aI249
aI249
aI249
aI249
aI249
aI249
aI249
aI249
aI249
aI249
aI249
aI249
aI249
aI249
aI249
aI249
aI249
aI249
aI249
aI249
aI249
aI249
aI249
aI249
aI249
aI249
aI249
aI249
aI249
aI249
aI249
aI249
aI249
aI249
aI249
aI249
aI249
aI249
aI249
aI249
aI249
aI249
aI249
aI249
aI249
aI249
aI249
aI249
aI249
aI249
aI249
aI249
aI249
aI249
aI249
aI249
aI249
aI249
aI249
aI249
aI249
aI249
aI249
aI249
aI249
aI249
aI249
aI249
aI249
aI249
aI249
aI249
aI249
aI249
aI249
aI249
aI249
aI249
aI249
aI249
aI249
aI249
aI249
aI249
aI249
aI249
aI249
aI249
aI249
aI249
aI249
aI249
aI249
aI249
aI249
aI249
aI249
aI249
aI249
aI249
aI249
aI249
aI249
aI249
aI249
aI249
aI249
aI249
aI249
aI249
aI249
aI249
aI249
aI249
aI249
aI249
aI249
aI249
aI249
aI249
aI249
aI249
aI249
aI249
aI249
aI249
aI249
aI249
aI249
aI249
aI249
aI249
aI249
aI249
aI249
aI249
aI249
aI249
aI249
aI249
aI249
aI249
aI249
aI249
aI249
aI249
aI249
aI249
aI249
aI249
aI249
aI249
aI249
aI249
aI249
aI249
aI249
aI249
aI249
aI249
aI249
aI249
aI249
aI249
aI249
aI249
aI249
aI249
aI249
aI249
aI249
aI249
aI249
aI249
aI249
aI249
aI249
aI249
aI249
aI249
aI249
aI249
aI249
aI249
aI249
aI249
aI249
aI249
aI249
aI249
aI249
aI249
aI249
aI250
aI250
aI250
aI250
aI250
aI250
aI250
aI250
aI250
aI250
aI250
aI250
aI250
aI250
aI250
aI250
aI250
aI250
aI250
aI250
aI250
aI250
aI250
aI250
aI250
aI250
aI250
aI250
aI250
aI250
aI250
aI250
aI250
aI250
aI250
aI250
aI250
aI250
aI250
aI250
aI250
aI250
aI250
aI250
aI250
aI250
aI250
aI250
aI250
aI250
aI250
aI250
aI250
aI250
aI250
aI250
aI250
aI250
aI250
aI250
aI250
aI250
aI250
aI250
aI250
aI250
aI250
aI250
aI250
aI250
aI250
aI250
aI250
aI250
aI250
aI250
aI250
aI250
aI250
aI250
aI250
aI250
aI250
aI250
aI250
aI250
aI250
aI250
aI250
aI250
aI250
aI250
aI250
aI250
aI250
aI250
aI250
aI250
aI250
aI250
aI250
aI250
aI250
aI250
aI250
aI250
aI250
aI250
aI250
aI250
aI250
aI250
aI250
aI250
aI250
aI250
aI250
aI250
aI250
aI250
aI250
aI250
aI250
aI250
aI250
aI250
aI250
aI250
aI250
aI250
aI250
aI250
aI250
aI250
aI250
aI250
aI250
aI250
aI250
aI250
aI250
aI250
aI250
aI250
aI250
aI250
aI250
aI250
aI250
aI250
aI250
aI250
aI250
aI250
aI250
aI250
aI250
aI250
aI250
aI250
aI250
aI250
aI250
aI250
aI250
aI250
aI250
aI250
aI250
aI250
aI250
aI250
aI250
aI250
aI250
aI250
aI250
aI250
aI250
aI250
aI250
aI250
aI250
aI250
aI250
aI250
aI250
aI250
aI250
aI250
aI250
aI250
aI250
aI250
aI250
aI251
aI252
aI254
aI255
aI256
aI256
aI256
aI256
aI256
aI256
aI256
aI256
assS'supervised'
p9
(dp10
g3
(lp11
I0
aI10
aI20
aI30
aI40
aI50
aI60
aI70
aI80
aI90
aI100
aI110
aI120
aI130
aI140
aI150
aI160
aI170
aI180
aI190
aI200
aI210
aI220
aI230
aI240
aI250
aI260
aI270
aI280
aI290
aI300
aI310
aI320
aI330
aI340
aI350
aI360
aI370
aI380
aI390
aI400
aI410
aI420
aI430
aI440
aI450
aI460
aI470
aI480
aI490
aI500
aI510
aI520
aI530
aI540
aI550
aI560
aI570
aI580
aI590
aI600
aI610
aI620
aI630
aI640
aI650
aI660
aI670
aI680
aI690
aI700
aI710
aI720
aI730
aI740
aI750
aI760
aI770
aI780
aI790
aI800
aI810
aI820
aI830
aI840
aI850
aI860
aI870
aI880
aI890
aI900
aI910
aI920
aI930
aI940
aI950
aI960
aI970
aI980
aI990
aI1000
aI1010
aI1020
aI1030
aI1040
aI1050
aI1060
aI1070
aI1080
aI1090
aI1100
aI1110
aI1120
aI1130
aI1140
aI1150
aI1160
aI1170
aI1180
aI1190
aI1200
aI1210
aI1220
aI1230
aI1240
aI1250
aI1260
aI1270
aI1280
aI1290
aI1300
aI1310
aI1320
aI1330
aI1340
aI1350
aI1360
aI1370
aI1380
aI1390
aI1400
aI1410
aI1420
aI1430
aI1440
aI1450
aI1460
aI1470
aI1480
aI1490
aI1500
aI1510
aI1520
aI1530
aI1540
aI1550
aI1560
aI1570
aI1580
aI1590
aI1600
aI1610
aI1620
aI1630
aI1640
aI1650
aI1660
aI1670
aI1680
aI1690
aI1700
aI1710
aI1720
aI1730
aI1740
aI1750
aI1760
aI1770
aI1780
aI1790
aI1800
aI1810
aI1820
aI1830
aI1840
aI1850
aI1860
aI1870
aI1880
aI1890
aI1900
aI1910
aI1920
aI1930
aI1940
aI1950
aI1960
aI1970
aI1980
aI1990
aI2000
aI2010
aI2020
aI2030
aI2040
aI2050
aI2060
aI2070
aI2080
aI2090
aI2100
aI2110
aI2120
aI2130
aI2140
aI2150
aI2160
aI2170
aI2180
aI2190
aI2200
aI2210
aI2220
aI2230
aI2240
aI2250
aI2260
aI2270
aI2280
aI2290
aI2300
aI2310
aI2320
aI2330
aI2340
aI2350
aI2360
aI2370
aI2380
aI2390
aI2400
aI2410
aI2420
aI2430
aI2440
aI2450
aI2460
aI2470
aI2480
aI2490
aI2500
aI2510
aI2520
aI2530
aI2540
aI2550
aI2560
aI2570
aI2580
aI2590
aI2600
aI2610
aI2620
aI2630
aI2640
aI2650
aI2660
aI2670
aI2680
aI2690
aI2700
aI2710
aI2720
aI2730
aI2740
aI2750
aI2760
aI2770
aI2780
aI2790
aI2800
aI2810
aI2820
aI2830
aI2840
aI2850
aI2860
aI2870
aI2880
aI2890
aI2900
aI2910
aI2920
aI2930
aI2940
aI2950
aI2960
aI2970
aI2980
aI2990
aI3000
aI3010
aI3020
aI3030
aI3040
aI3050
aI3060
aI3070
aI3080
aI3090
aI3100
aI3110
aI3120
aI3130
aI3140
aI3150
aI3160
aI3170
aI3180
aI3190
aI3200
aI3210
aI3220
aI3230
aI3240
aI3250
aI3260
aI3270
aI3280
aI3290
aI3300
aI3310
aI3320
aI3330
aI3340
aI3350
aI3360
aI3370
aI3380
aI3390
aI3400
aI3410
aI3420
aI3430
aI3440
aI3450
aI3460
aI3470
aI3480
aI3490
aI3500
aI3510
aI3520
aI3530
aI3540
aI3550
aI3560
aI3570
aI3580
aI3590
aI3600
aI3610
aI3620
aI3630
aI3640
aI3650
aI3660
aI3670
aI3680
aI3690
aI3700
aI3710
aI3720
aI3730
aI3740
aI3750
aI3760
aI3770
aI3780
aI3790
aI3800
aI3810
aI3820
aI3830
aI3840
aI3850
aI3860
aI3870
aI3880
aI3890
aI3900
aI3910
aI3920
aI3930
aI3940
aI3950
aI3960
aI3970
aI3980
aI3990
aI4000
aI4010
aI4020
aI4030
aI4040
aI4050
aI4060
aI4070
aI4080
aI4090
aI4100
aI4110
aI4120
aI4130
aI4140
aI4150
aI4160
aI4170
aI4180
aI4190
aI4200
aI4210
aI4220
aI4230
aI4240
aI4250
aI4260
aI4270
aI4280
aI4290
aI4300
aI4310
aI4320
aI4330
aI4340
aI4350
aI4360
aI4370
aI4380
aI4390
aI4400
aI4410
aI4420
aI4430
aI4440
aI4450
aI4460
aI4470
aI4480
aI4490
aI4500
aI4510
aI4520
aI4530
aI4540
aI4550
aI4560
aI4570
aI4580
aI4590
aI4600
aI4610
aI4620
aI4630
aI4640
aI4650
aI4660
aI4670
aI4680
aI4690
aI4700
aI4710
aI4720
aI4730
aI4740
aI4750
aI4760
aI4770
aI4780
aI4790
aI4800
aI4810
aI4820
aI4830
aI4840
aI4850
aI4860
aI4870
aI4880
aI4890
aI4900
aI4910
aI4920
aI4930
aI4940
aI4950
aI4960
aI4970
aI4980
aI4990
aI5000
aI5010
aI5020
aI5030
aI5040
aI5050
aI5060
aI5070
aI5080
aI5090
aI5100
aI5110
aI5120
aI5130
aI5140
aI5150
aI5160
aI5170
aI5180
aI5190
aI5200
aI5210
aI5220
aI5230
aI5240
aI5250
aI5260
aI5270
aI5280
aI5290
aI5300
aI5310
aI5320
aI5330
aI5340
aI5350
aI5360
aI5370
aI5380
aI5390
aI5400
aI5410
aI5420
aI5430
aI5440
aI5450
aI5460
aI5470
aI5480
aI5490
aI5500
aI5510
aI5520
aI5530
aI5540
aI5550
aI5560
aI5570
aI5580
aI5590
aI5600
aI5610
aI5620
aI5630
aI5640
aI5650
aI5660
aI5670
aI5680
aI5690
aI5700
aI5710
aI5720
aI5730
aI5740
aI5750
aI5760
aI5770
aI5780
aI5790
aI5800
aI5810
aI5820
aI5830
aI5840
aI5850
aI5860
aI5870
aI5880
aI5890
aI5900
aI5910
aI5920
aI5930
aI5940
aI5950
aI5960
aI5970
aI5980
aI5990
aI6000
aI6010
aI6020
aI6030
aI6040
aI6050
aI6060
aI6070
aI6080
aI6090
aI6100
aI6110
aI6120
aI6130
aI6140
aI6150
aI6160
aI6170
aI6180
aI6190
aI6200
aI6210
aI6220
aI6230
aI6240
aI6250
aI6260
aI6270
aI6280
aI6290
aI6300
aI6310
aI6320
aI6330
aI6340
aI6350
aI6360
aI6370
aI6380
aI6390
aI6400
aI6410
aI6420
aI6430
aI6440
aI6450
aI6460
aI6470
aI6480
aI6490
aI6500
aI6510
aI6520
aI6530
aI6540
aI6550
aI6560
aI6570
aI6580
aI6590
aI6600
aI6610
aI6620
aI6630
aI6640
aI6650
aI6660
aI6670
aI6680
aI6690
aI6700
aI6710
aI6720
aI6730
aI6740
aI6750
aI6760
aI6770
aI6780
aI6790
aI6800
aI6810
aI6820
aI6830
aI6840
aI6850
aI6860
aI6870
aI6880
aI6890
aI6900
aI6910
aI6920
aI6930
aI6940
aI6950
aI6960
aI6970
aI6980
aI6990
aI7000
aI7010
aI7020
aI7030
aI7040
aI7050
aI7060
aI7070
aI7080
aI7090
aI7100
aI7110
aI7120
aI7130
aI7140
aI7150
aI7160
aI7170
aI7180
aI7190
aI7200
aI7210
aI7220
aI7230
aI7240
aI7250
aI7260
aI7270
aI7280
aI7290
aI7300
aI7310
aI7320
aI7330
aI7340
aI7350
aI7360
aI7370
aI7380
aI7390
aI7400
aI7410
aI7420
aI7430
aI7440
aI7450
aI7460
aI7470
aI7480
aI7490
aI7500
aI7510
aI7520
aI7530
aI7540
aI7550
aI7560
aI7570
aI7580
aI7590
aI7600
aI7610
aI7620
aI7630
aI7640
aI7650
aI7660
aI7670
aI7680
aI7690
aI7700
aI7710
aI7720
aI7730
aI7740
aI7750
aI7760
aI7770
aI7780
aI7790
aI7800
aI7810
aI7820
aI7830
aI7840
aI7850
aI7860
aI7870
aI7880
aI7890
aI7900
aI7910
aI7920
aI7930
aI7940
aI7950
aI7960
aI7970
aI7980
aI7990
aI8000
aI8010
aI8020
aI8030
aI8040
aI8050
aI8060
aI8070
aI8080
aI8090
aI8100
aI8110
aI8120
aI8130
aI8140
aI8150
aI8160
aI8170
aI8180
aI8190
aI8200
aI8210
aI8220
aI8230
aI8240
aI8250
aI8260
aI8270
aI8280
aI8290
aI8300
aI8310
aI8320
aI8330
aI8340
aI8350
aI8360
aI8370
aI8380
aI8390
aI8400
aI8410
aI8420
aI8430
aI8440
aI8450
aI8460
aI8470
aI8480
aI8490
aI8500
aI8510
aI8520
aI8530
aI8540
aI8550
aI8560
aI8570
aI8580
aI8590
aI8600
aI8610
aI8620
aI8630
aI8640
aI8650
aI8660
aI8670
aI8680
aI8690
aI8700
aI8710
aI8720
aI8730
aI8740
aI8750
aI8760
aI8770
aI8780
aI8790
aI8800
aI8810
aI8820
aI8830
aI8840
aI8850
aI8860
aI8870
aI8880
aI8890
aI8900
aI8910
aI8920
aI8930
aI8940
aI8950
aI8960
aI8970
aI8980
aI8990
aI9000
aI9010
aI9020
aI9030
aI9040
aI9050
aI9060
aI9070
aI9080
aI9090
aI9100
aI9110
aI9120
aI9130
aI9140
aI9150
aI9160
aI9170
aI9180
aI9190
aI9200
aI9210
aI9220
aI9230
aI9240
aI9250
aI9260
aI9270
aI9280
aI9290
aI9300
aI9310
aI9320
aI9330
aI9340
aI9350
aI9360
aI9370
aI9380
aI9390
aI9400
aI9410
aI9420
aI9430
aI9440
aI9450
aI9460
aI9470
aI9480
aI9490
aI9500
aI9510
aI9520
aI9530
aI9540
aI9550
aI9560
aI9570
aI9580
aI9590
aI9600
aI9610
aI9620
aI9630
aI9640
aI9650
aI9660
aI9670
aI9680
aI9690
aI9700
aI9710
aI9720
aI9730
aI9740
aI9750
aI9760
aI9770
aI9780
aI9790
aI9800
aI9810
aI9820
aI9830
aI9840
aI9850
aI9860
aI9870
aI9880
aI9890
aI9900
aI9910
aI9920
aI9930
aI9940
aI9950
aI9960
aI9970
aI9980
aI9990
aI10000
aI10010
aI10020
aI10030
aI10040
aI10050
aI10060
aI10070
aI10080
aI10090
aI10100
aI10110
aI10120
aI10130
aI10140
aI10150
aI10160
aI10170
aI10180
aI10190
aI10200
aI10210
aI10220
aI10230
aI10240
aI10250
aI10260
aI10270
aI10280
aI10290
aI10300
aI10310
asg5
(lp12
I157
aI157
aI160
aI159
aI161
aI165
aI168
aI169
aI169
aI172
aI175
aI180
aI183
aI189
aI189
aI193
aI197
aI199
aI202
aI204
aI207
aI207
aI211
aI216
aI218
aI218
aI220
aI222
aI221
aI222
aI222
aI225
aI223
aI223
aI222
aI221
aI223
aI223
aI228
aI229
aI228
aI229
aI229
aI230
aI230
aI230
aI230
aI229
aI231
aI233
aI235
aI234
aI234
aI238
aI240
aI239
aI239
aI239
aI238
aI238
aI238
aI237
aI237
aI238
aI241
aI241
aI240
aI243
aI243
aI245
aI246
aI248
aI250
aI250
aI251
aI251
aI251
aI250
aI250
aI250
aI250
aI250
aI249
aI249
aI248
aI248
aI248
aI248
aI248
aI247
aI247
aI247
aI247
aI247
aI246
aI246
aI246
aI246
aI246
aI245
aI245
aI245
aI245
aI244
aI244
aI244
aI244
aI244
aI244
aI243
aI243
aI243
aI243
aI242
aI242
aI242
aI242
aI242
aI241
aI241
aI241
aI241
aI241
aI240
aI240
aI240
aI240
aI240
aI239
aI239
aI239
aI239
aI239
aI238
aI238
aI238
aI237
aI238
aI237
aI237
aI237
aI236
aI236
aI236
aI236
aI236
aI235
aI235
aI235
aI235
aI235
aI234
aI234
aI234
aI234
aI234
aI233
aI233
aI233
aI233
aI233
aI232
aI232
aI232
aI232
aI232
aI231
aI231
aI231
aI231
aI231
aI230
aI230
aI230
aI230
aI230
aI229
aI229
aI229
aI229
aI229
aI228
aI228
aI228
aI228
aI228
aI227
aI227
aI227
aI227
aI226
aI226
aI226
aI226
aI226
aI225
aI225
aI225
aI225
aI225
aI224
aI224
aI224
aI224
aI224
aI223
aI223
aI223
aI223
aI223
aI222
aI222
aI222
aI222
aI222
aI221
aI221
aI221
aI221
aI221
aI220
aI220
aI220
aI220
aI220
aI220
aI219
aI219
aI219
aI219
aI218
aI218
aI218
aI218
aI218
aI217
aI217
aI217
aI217
aI217
aI217
aI216
aI216
aI216
aI216
aI216
aI215
aI215
aI215
aI215
aI215
aI214
aI214
aI214
aI215
aI215
aI216
aI216
aI216
aI217
aI217
aI217
aI217
aI216
aI216
aI216
aI216
aI216
aI216
aI215
aI215
aI215
aI215
aI215
aI217
aI216
aI216
aI216
aI217
aI217
aI219
aI221
aI222
aI223
aI223
aI225
aI224
aI224
aI224
aI224
aI224
aI224
aI224
aI223
aI223
aI225
aI225
aI226
aI226
aI226
aI226
aI226
aI226
aI226
aI225
aI227
aI230
aI230
aI230
aI230
aI230
aI230
aI230
aI230
aI230
aI230
aI230
aI229
aI229
aI229
aI229
aI229
aI229
aI229
aI229
aI229
aI228
aI228
aI229
aI229
aI229
aI229
aI229
aI229
aI229
aI229
aI228
aI228
aI228
aI228
aI228
aI228
aI228
aI228
aI228
aI227
aI227
aI227
aI227
aI227
aI227
aI227
aI227
aI227
aI227
aI226
aI226
aI226
aI226
aI226
aI226
aI226
aI226
aI226
aI226
aI225
aI225
aI225
aI225
aI225
aI225
aI225
aI225
aI225
aI225
aI227
aI226
aI226
aI226
aI227
aI227
aI227
aI227
aI227
aI227
aI227
aI227
aI227
aI226
aI226
aI226
aI226
aI226
aI226
aI226
aI226
aI226
aI226
aI226
aI225
aI225
aI226
aI226
aI226
aI226
aI226
aI226
aI226
aI227
aI227
aI227
aI226
aI226
aI226
aI226
aI226
aI226
aI226
aI226
aI227
aI227
aI227
aI227
aI227
aI229
aI229
aI228
aI229
aI229
aI230
aI230
aI231
aI232
aI232
aI232
aI232
aI232
aI232
aI232
aI232
aI232
aI232
aI232
aI231
aI231
aI231
aI231
aI231
aI231
aI231
aI231
aI231
aI231
aI231
aI231
aI232
aI232
aI233
aI235
aI235
aI235
aI235
aI235
aI234
aI235
aI235
aI235
aI236
aI236
aI236
aI236
aI236
aI236
aI236
aI236
aI236
aI237
aI237
aI237
aI237
aI237
aI237
aI237
aI237
aI237
aI238
aI238
aI238
aI237
aI237
aI237
aI237
aI237
aI237
aI237
aI237
aI237
aI237
aI237
aI237
aI237
aI237
aI237
aI237
aI237
aI237
aI237
aI237
aI237
aI238
aI239
aI239
aI239
aI238
aI238
aI240
aI240
aI242
aI244
aI243
aI243
aI243
aI243
aI243
aI243
aI243
aI243
aI244
aI244
aI244
aI245
aI245
aI245
aI245
aI245
aI245
aI245
aI245
aI245
aI245
aI245
aI245
aI245
aI245
aI245
aI245
aI245
aI245
aI245
aI245
aI245
aI245
aI245
aI245
aI244
aI244
aI244
aI244
aI244
aI244
aI244
aI244
aI244
aI244
aI244
aI244
aI244
aI244
aI244
aI244
aI244
aI244
aI244
aI244
aI244
aI244
aI244
aI244
aI244
aI244
aI244
aI244
aI244
aI244
aI244
aI244
aI244
aI244
aI244
aI244
aI244
aI244
aI244
aI244
aI244
aI244
aI244
aI243
aI243
aI243
aI243
aI243
aI243
aI243
aI243
aI243
aI243
aI243
aI243
aI243
aI243
aI243
aI243
aI243
aI243
aI243
aI243
aI243
aI243
aI243
aI243
aI243
aI243
aI243
aI243
aI243
aI243
aI243
aI243
aI243
aI243
aI243
aI243
aI243
aI243
aI243
aI243
aI243
aI243
aI243
aI242
aI242
aI242
aI242
aI242
aI242
aI242
aI242
aI242
aI242
aI242
aI242
aI242
aI242
aI242
aI242
aI242
aI242
aI242
aI242
aI242
aI242
aI242
aI242
aI242
aI242
aI242
aI242
aI242
aI242
aI242
aI242
aI242
aI242
aI242
aI242
aI242
aI242
aI242
aI242
aI242
aI242
aI241
aI241
aI241
aI241
aI241
aI241
aI241
aI241
aI241
aI241
aI241
aI241
aI241
aI241
aI241
aI241
aI241
aI241
aI241
aI241
aI241
aI241
aI241
aI241
aI241
aI241
aI241
aI241
aI241
aI241
aI241
aI241
aI241
aI241
aI241
aI241
aI241
aI241
aI241
aI241
aI241
aI241
aI241
aI241
aI240
aI240
aI240
aI240
aI240
aI240
aI240
aI240
aI240
aI240
aI240
aI240
aI240
aI240
aI240
aI240
aI240
aI240
aI240
aI240
aI240
aI240
aI240
aI240
aI240
aI240
aI240
aI240
aI240
aI240
aI240
aI240
aI240
aI240
aI240
aI240
aI240
aI240
aI240
aI240
aI240
aI240
aI240
aI240
aI239
aI239
aI239
aI239
aI239
aI239
aI239
aI239
aI239
aI239
aI239
aI239
aI239
aI239
aI239
aI239
aI239
aI239
aI239
aI239
aI239
aI239
aI239
aI239
aI239
aI239
aI239
aI239
aI239
aI239
aI239
aI239
aI239
aI239
aI239
aI239
aI239
aI239
aI239
aI239
aI239
aI239
aI239
aI238
aI238
aI238
aI238
aI238
aI238
aI238
aI238
aI238
aI238
aI238
aI238
aI238
aI238
aI238
aI238
aI238
aI238
aI238
aI238
aI238
aI238
aI238
aI238
aI238
aI238
aI238
aI238
aI238
aI238
aI238
aI238
aI238
aI238
aI238
aI238
aI238
aI238
aI238
aI238
aI238
aI238
aI238
aI238
aI238
aI237
aI237
aI237
aI237
aI237
aI237
aI237
aI237
aI237
aI237
aI237
aI237
aI237
aI237
aI237
aI237
aI237
aI237
aI237
aI237
aI237
aI237
aI237
aI237
aI237
aI237
aI237
aI237
aI237
aI237
aI237
aI237
aI237
aI237
aI237
aI237
aI237
aI237
aI237
aI237
aI237
aI237
aI237
aI237
aI237
aI236
aI236
aI236
aI236
aI236
aI236
aI236
aI236
aI236
aI236
aI236
aI236
aI236
aI236
aI236
aI237
aI237
aI237
aI237
aI237
aI238
aI239
aI239
aI239
aI239
aI240
aI240
aI240
aI241
aI241
aI241
aI241
aI241
aI241
aI242
aI242
aI242
aI242
aI243
aI243
aI243
aI243
aI243
aI244
aI244
aI244
aI244
aI244
aI244
aI244
aI244
aI244
aI244
aI244
aI244
aI244
aI244
aI244
aI245
aI245
aI246
aI246
aI246
aI246
aI246
aI246
aI246
aI247
aI247
aI247
aI248
aI251
aI252
aI252
aI252
aI252
aI252
aI252
aI252
aI252
aI252
aI252
aI252
aI252
aI252
aI252
aI252
aI252
aI252
aI252
aI252
aI253
aI253
aI253
aI253
aI253
aI253
aI253
aI253
aI253
aI253
aI253
aI253
aI253
aI253
aI253
aI253
aI253
aI253
aI253
aI253
aI253
aI253
aI253
aI253
aI253
aI253
aI253
aI253
aI253
aI253
aI253
aI253
aI253
aI253
aI253
aI253
aI255
aI255
asg7
(lp13
I0
aI9
aI12
aI20
aI29
aI37
aI43
aI48
aI56
aI64
aI72
aI79
aI87
aI90
aI96
aI103
aI107
aI111
aI114
aI119
aI120
aI124
aI130
aI133
aI134
aI137
aI139
aI139
aI141
aI142
aI144
aI144
aI144
aI144
aI144
aI146
aI147
aI151
aI152
aI152
aI153
aI154
aI155
aI155
aI156
aI156
aI156
aI158
aI160
aI162
aI162
aI162
aI165
aI167
aI167
aI167
aI167
aI167
aI167
aI167
aI167
aI167
aI168
aI171
aI171
aI171
aI174
aI174
aI176
aI177
aI179
aI181
aI181
aI182
aI182
aI182
aI182
aI182
aI182
aI182
aI182
aI182
aI182
aI182
aI182
aI182
aI182
aI182
aI182
aI182
aI182
aI182
aI182
aI182
aI182
aI182
aI182
aI182
aI182
aI182
aI182
aI182
aI182
aI182
aI182
aI182
aI182
aI182
aI182
aI182
aI182
aI182
aI182
aI182
aI182
aI182
aI182
aI182
aI182
aI182
aI182
aI182
aI182
aI182
aI182
aI182
aI182
aI182
aI182
aI182
aI182
aI182
aI182
aI182
aI182
aI182
aI182
aI182
aI182
aI182
aI182
aI182
aI182
aI182
aI182
aI182
aI182
aI182
aI182
aI182
aI182
aI182
aI182
aI182
aI182
aI182
aI182
aI182
aI182
aI182
aI182
aI182
aI182
aI182
aI182
aI182
aI182
aI182
aI182
aI182
aI182
aI182
aI182
aI182
aI182
aI182
aI182
aI182
aI182
aI182
aI182
aI182
aI182
aI182
aI182
aI182
aI182
aI182
aI182
aI182
aI182
aI182
aI182
aI182
aI182
aI182
aI182
aI182
aI182
aI182
aI182
aI182
aI182
aI182
aI182
aI182
aI182
aI182
aI182
aI182
aI182
aI182
aI182
aI182
aI182
aI182
aI182
aI182
aI182
aI182
aI182
aI182
aI182
aI182
aI182
aI182
aI182
aI182
aI182
aI182
aI182
aI182
aI182
aI182
aI182
aI182
aI182
aI182
aI182
aI182
aI182
aI182
aI182
aI182
aI182
aI182
aI182
aI182
aI182
aI182
aI182
aI182
aI182
aI183
aI183
aI184
aI185
aI185
aI186
aI186
aI186
aI186
aI186
aI186
aI186
aI186
aI186
aI186
aI186
aI186
aI186
aI186
aI186
aI188
aI188
aI188
aI188
aI189
aI189
aI191
aI193
aI194
aI195
aI195
aI197
aI197
aI197
aI197
aI197
aI197
aI197
aI197
aI197
aI197
aI199
aI199
aI200
aI200
aI200
aI200
aI200
aI200
aI200
aI200
aI202
aI204
aI205
aI205
aI205
aI205
aI205
aI205
aI205
aI205
aI205
aI205
aI205
aI205
aI205
aI205
aI205
aI205
aI205
aI205
aI205
aI205
aI205
aI206
aI206
aI206
aI206
aI206
aI206
aI206
aI206
aI206
aI206
aI206
aI206
aI206
aI206
aI206
aI206
aI206
aI206
aI206
aI206
aI206
aI206
aI206
aI206
aI206
aI206
aI206
aI206
aI206
aI206
aI206
aI206
aI206
aI206
aI206
aI206
aI206
aI206
aI206
aI206
aI206
aI206
aI206
aI206
aI206
aI206
aI206
aI208
aI208
aI208
aI208
aI209
aI209
aI209
aI209
aI209
aI209
aI209
aI209
aI209
aI209
aI209
aI209
aI209
aI209
aI209
aI209
aI209
aI209
aI209
aI209
aI209
aI209
aI210
aI210
aI210
aI210
aI210
aI210
aI210
aI211
aI211
aI211
aI211
aI211
aI211
aI211
aI211
aI211
aI211
aI211
aI212
aI212
aI212
aI212
aI212
aI214
aI214
aI214
aI215
aI215
aI216
aI216
aI217
aI218
aI218
aI218
aI218
aI218
aI218
aI218
aI218
aI218
aI218
aI218
aI218
aI218
aI218
aI218
aI218
aI218
aI218
aI218
aI218
aI218
aI218
aI218
aI219
aI219
aI220
aI222
aI222
aI222
aI222
aI222
aI222
aI223
aI223
aI223
aI224
aI224
aI224
aI224
aI224
aI224
aI224
aI224
aI224
aI225
aI225
aI225
aI225
aI225
aI225
aI225
aI225
aI225
aI226
aI226
aI226
aI226
aI226
aI226
aI226
aI226
aI226
aI226
aI226
aI226
aI226
aI226
aI226
aI226
aI226
aI226
aI226
aI226
aI226
aI226
aI226
aI226
aI227
aI228
aI228
aI228
aI228
aI228
aI230
aI230
aI232
aI233
aI233
aI233
aI233
aI233
aI233
aI233
aI233
aI233
aI234
aI234
aI234
aI235
aI235
aI235
aI235
aI235
aI235
aI235
aI235
aI235
aI235
aI235
aI235
aI235
aI235
aI235
aI235
aI235
aI235
aI235
aI235
aI235
aI235
aI235
aI235
aI235
aI235
aI235
aI235
aI235
aI235
aI235
aI235
aI235
aI235
aI235
aI235
aI235
aI235
aI235
aI235
aI235
aI235
aI235
aI235
aI235
aI235
aI235
aI235
aI235
aI235
aI235
aI235
aI235
aI235
aI235
aI235
aI235
aI235
aI235
aI235
aI235
aI235
aI235
aI235
aI235
aI235
aI235
aI235
aI235
aI235
aI235
aI235
aI235
aI235
aI235
aI235
aI235
aI235
aI235
aI235
aI235
aI235
aI235
aI235
aI235
aI235
aI235
aI235
aI235
aI235
aI235
aI235
aI235
aI235
aI235
aI235
aI235
aI235
aI235
aI235
aI235
aI235
aI235
aI235
aI235
aI235
aI235
aI235
aI235
aI235
aI235
aI235
aI235
aI235
aI235
aI235
aI235
aI235
aI235
aI235
aI235
aI235
aI235
aI235
aI235
aI235
aI235
aI235
aI235
aI235
aI235
aI235
aI235
aI235
aI235
aI235
aI235
aI235
aI235
aI235
aI235
aI235
aI235
aI235
aI235
aI235
aI235
aI235
aI235
aI235
aI235
aI235
aI235
aI235
aI235
aI235
aI235
aI235
aI235
aI235
aI235
aI235
aI235
aI235
aI235
aI235
aI235
aI235
aI235
aI235
aI235
aI235
aI235
aI235
aI235
aI235
aI235
aI235
aI235
aI235
aI235
aI235
aI235
aI235
aI235
aI235
aI235
aI235
aI235
aI235
aI235
aI235
aI235
aI235
aI235
aI235
aI235
aI235
aI235
aI235
aI235
aI235
aI235
aI235
aI235
aI235
aI235
aI235
aI235
aI235
aI235
aI235
aI235
aI235
aI235
aI235
aI235
aI235
aI235
aI235
aI235
aI235
aI235
aI235
aI235
aI235
aI235
aI235
aI235
aI235
aI235
aI235
aI235
aI235
aI235
aI235
aI235
aI235
aI235
aI235
aI235
aI235
aI235
aI235
aI235
aI235
aI235
aI235
aI235
aI235
aI235
aI235
aI235
aI235
aI235
aI235
aI235
aI235
aI235
aI235
aI235
aI235
aI235
aI235
aI235
aI235
aI235
aI235
aI235
aI235
aI235
aI235
aI235
aI235
aI235
aI235
aI235
aI235
aI235
aI235
aI235
aI235
aI235
aI235
aI235
aI235
aI235
aI235
aI235
aI235
aI235
aI235
aI235
aI235
aI235
aI235
aI235
aI235
aI235
aI235
aI235
aI235
aI235
aI235
aI235
aI235
aI235
aI235
aI235
aI235
aI235
aI235
aI235
aI235
aI235
aI235
aI235
aI235
aI235
aI235
aI235
aI235
aI235
aI235
aI235
aI235
aI235
aI235
aI235
aI235
aI235
aI235
aI235
aI235
aI235
aI235
aI235
aI235
aI235
aI235
aI235
aI235
aI235
aI235
aI235
aI235
aI235
aI235
aI235
aI235
aI235
aI235
aI235
aI235
aI235
aI235
aI235
aI235
aI235
aI235
aI235
aI235
aI235
aI235
aI235
aI235
aI235
aI235
aI235
aI235
aI235
aI235
aI235
aI235
aI235
aI235
aI235
aI235
aI235
aI235
aI235
aI235
aI235
aI235
aI235
aI235
aI235
aI235
aI236
aI236
aI236
aI236
aI236
aI237
aI238
aI238
aI238
aI238
aI239
aI239
aI239
aI240
aI240
aI240
aI240
aI240
aI240
aI241
aI241
aI241
aI241
aI242
aI242
aI242
aI242
aI242
aI243
aI243
aI243
aI244
aI244
aI244
aI244
aI244
aI244
aI244
aI244
aI244
aI244
aI244
aI244
aI245
aI245
aI246
aI246
aI246
aI246
aI246
aI246
aI246
aI247
aI247
aI247
aI248
aI251
aI252
aI252
aI252
aI252
aI252
aI252
aI252
aI252
aI252
aI252
aI252
aI252
aI252
aI252
aI252
aI252
aI252
aI252
aI252
aI253
aI253
aI253
aI253
aI253
aI253
aI253
aI253
aI253
aI253
aI253
aI253
aI253
aI253
aI253
aI253
aI253
aI253
aI253
aI253
aI253
aI253
aI253
aI253
aI253
aI253
aI253
aI253
aI253
aI253
aI253
aI253
aI253
aI253
aI253
aI253
aI255
aI255
aI256
asS'thres'
p14
I217
ssS'true'
p15
(lp16
I256
aI10322
as.