(dp0
S'active'
p1
(dp2
S'x'
p3
(lp4
I0
aI10
aI20
aI30
aI40
aI50
aI60
aI70
aI80
aI90
aI100
aI110
aI120
aI130
aI140
aI150
aI160
aI170
aI180
aI190
aI200
aI210
aI220
aI230
aI240
aI250
aI260
aI270
aI280
aI290
aI300
aI310
aI320
aI330
aI340
aI350
aI360
aI370
aI380
aI390
aI400
aI410
aI420
aI430
aI440
aI450
aI460
aI470
aI480
aI490
aI500
aI510
aI520
aI530
aI540
aI550
aI560
aI570
aI580
aI590
aI600
aI610
aI620
aI630
aI640
aI650
aI660
aI670
aI680
aI690
aI700
aI710
aI720
aI730
aI740
aI750
aI760
aI770
aI780
aI790
aI800
aI810
aI820
aI830
aI840
aI850
aI860
aI870
aI880
aI890
aI900
aI910
aI920
aI930
aI940
aI950
aI960
aI970
aI980
aI990
aI1000
aI1010
aI1020
aI1030
aI1040
aI1050
aI1060
aI1070
aI1080
aI1090
aI1100
aI1110
aI1120
aI1130
aI1140
aI1150
aI1160
aI1170
aI1180
aI1190
aI1200
aI1210
aI1220
aI1230
aI1240
aI1250
aI1260
aI1270
aI1280
aI1290
aI1300
aI1310
aI1320
aI1330
aI1340
aI1350
aI1360
aI1370
aI1380
aI1390
aI1400
aI1410
aI1420
aI1430
aI1440
aI1450
aI1460
aI1470
aI1480
aI1490
aI1500
aI1510
aI1520
aI1530
aI1540
aI1550
aI1560
aI1570
aI1580
aI1590
aI1600
aI1610
aI1620
aI1630
aI1640
aI1650
aI1660
aI1670
aI1680
aI1690
aI1700
aI1710
aI1720
aI1730
aI1740
aI1750
aI1760
aI1770
aI1780
aI1790
aI1800
aI1810
aI1820
aI1830
aI1840
aI1850
aI1860
aI1870
aI1880
aI1890
aI1900
aI1910
aI1920
aI1930
aI1940
aI1950
aI1960
aI1970
aI1980
aI1990
aI2000
aI2010
aI2020
aI2030
aI2040
aI2050
aI2060
aI2070
aI2080
aI2090
aI2100
aI2110
aI2120
aI2130
aI2140
aI2150
aI2160
aI2170
aI2180
aI2190
aI2200
aI2210
aI2220
aI2230
aI2240
aI2250
aI2260
asS'est'
p5
(lp6
I0
aI0
aI0
aI0
aI0
aI0
aI0
aI0
aI0
aI0
aI105
aI105
aI92
aI102
aI61
aI68
aI78
aI78
aI69
aI66
aI64
aI63
aI63
aI63
aI63
aI63
aI63
aI65
aI66
aI66
aI65
aI66
aI68
aI69
aI71
aI71
aI71
aI72
aI71
aI74
aI78
aI78
aI87
aI101
aI99
aI106
aI109
aI112
aI110
aI110
aI110
aI111
aI112
aI120
aI132
aI143
aI151
aI156
aI163
aI167
aI169
aI168
aI169
aI168
aI168
aI168
aI168
aI167
aI168
aI168
aI168
aI168
aI167
aI169
aI172
aI175
aI174
aI174
aI174
aI174
aI174
aI174
aI174
aI175
aI174
aI174
aI174
aI174
aI174
aI174
aI174
aI174
aI174
aI174
aI174
aI174
aI174
aI174
aI174
aI174
aI174
aI174
aI175
aI178
aI180
aI181
aI182
aI183
aI183
aI183
aI183
aI183
aI183
aI182
aI190
aI193
aI192
aI192
aI192
aI192
aI197
aI196
aI196
aI196
aI196
aI197
aI197
aI197
aI197
aI197
aI197
aI197
aI197
aI197
aI197
aI197
aI197
aI197
aI198
aI198
aI198
aI198
aI198
aI198
aI198
aI198
aI198
aI198
aI198
aI198
aI198
aI198
aI198
aI198
aI198
aI198
aI198
aI198
aI198
aI198
aI198
aI198
aI198
aI198
aI200
aI200
aI200
aI201
aI201
aI201
aI201
aI201
aI201
aI201
aI201
aI201
aI201
aI201
aI202
aI202
aI202
aI203
aI203
aI203
aI203
aI203
aI204
aI204
aI204
aI204
aI204
aI204
aI204
aI204
aI204
aI204
aI204
aI204
aI204
aI204
aI204
aI204
aI204
aI204
aI204
aI204
aI204
aI204
aI204
aI204
aI204
aI204
aI204
aI205
aI206
aI206
aI206
aI206
aI207
aI207
aI207
aI207
aI207
aI207
aI207
aI207
aI208
asS'pos'
p7
(lp8
I0
aI0
aI0
aI0
aI0
aI0
aI0
aI0
aI0
aI1
aI1
aI11
aI21
aI31
aI41
aI51
aI61
aI61
aI61
aI61
aI61
aI61
aI61
aI61
aI61
aI61
aI62
aI64
aI64
aI64
aI64
aI66
aI67
aI69
aI69
aI69
aI70
aI70
aI73
aI76
aI76
aI83
aI92
aI94
aI102
aI105
aI106
aI107
aI107
aI108
aI108
aI108
aI115
aI125
aI135
aI145
aI152
aI161
aI165
aI166
aI166
aI166
aI166
aI166
aI166
aI166
aI166
aI166
aI166
aI166
aI166
aI166
aI167
aI170
aI173
aI173
aI173
aI173
aI173
aI173
aI173
aI173
aI173
aI173
aI173
aI173
aI173
aI173
aI173
aI173
aI173
aI173
aI173
aI173
aI173
aI173
aI173
aI173
aI173
aI173
aI173
aI174
aI177
aI179
aI180
aI181
aI182
aI182
aI182
aI182
aI182
aI182
aI182
aI187
aI192
aI192
aI192
aI192
aI192
aI196
aI196
aI196
aI196
aI196
aI197
aI197
aI197
aI197
aI197
aI197
aI197
aI197
aI197
aI197
aI197
aI197
aI197
aI198
aI198
aI198
aI198
aI198
aI198
aI198
aI198
aI198
aI198
aI198
aI198
aI198
aI198
aI198
aI198
aI198
aI198
aI198
aI198
aI198
aI198
aI198
aI198
aI198
aI198
aI200
aI200
aI200
aI201
aI201
aI201
aI201
aI201
aI201
aI201
aI201
aI201
aI201
aI201
aI202
aI202
aI202
aI203
aI203
aI203
aI203
aI203
aI204
aI204
aI204
aI204
aI204
aI204
aI204
aI204
aI204
aI204
aI204
aI204
aI204
aI204
aI204
aI204
aI204
aI204
aI204
aI204
aI204
aI204
aI204
aI204
aI204
aI204
aI204
aI205
aI206
aI206
aI206
aI206
aI207
aI207
aI207
aI207
aI207
aI207
aI207
aI207
aI208
aI209
assS'supervised'
p9
(dp10
g3
(lp11
I0
aI10
aI20
aI30
aI40
aI50
aI60
aI70
aI80
aI90
aI100
aI110
aI120
aI130
aI140
aI150
aI160
aI170
aI180
aI190
aI200
aI210
aI220
aI230
aI240
aI250
aI260
aI270
aI280
aI290
aI300
aI310
aI320
aI330
aI340
aI350
aI360
aI370
aI380
aI390
aI400
aI410
aI420
aI430
aI440
aI450
aI460
aI470
aI480
aI490
aI500
aI510
aI520
aI530
aI540
aI550
aI560
aI570
aI580
aI590
aI600
aI610
aI620
aI630
aI640
aI650
aI660
aI670
aI680
aI690
aI700
aI710
aI720
aI730
aI740
aI750
aI760
aI770
aI780
aI790
aI800
aI810
aI820
aI830
aI840
aI850
aI860
aI870
aI880
aI890
aI900
aI910
aI920
aI930
aI940
aI950
aI960
aI970
aI980
aI990
aI1000
aI1010
aI1020
aI1030
aI1040
aI1050
aI1060
aI1070
aI1080
aI1090
aI1100
aI1110
aI1120
aI1130
aI1140
aI1150
aI1160
aI1170
aI1180
aI1190
aI1200
aI1210
aI1220
aI1230
aI1240
aI1250
aI1260
aI1270
aI1280
aI1290
aI1300
aI1310
aI1320
aI1330
aI1340
aI1350
aI1360
aI1370
aI1380
aI1390
aI1400
aI1410
aI1420
aI1430
aI1440
aI1450
aI1460
aI1470
aI1480
aI1490
aI1500
aI1510
aI1520
aI1530
aI1540
aI1550
aI1560
aI1570
aI1580
aI1590
aI1600
aI1610
aI1620
aI1630
aI1640
aI1650
aI1660
aI1670
aI1680
aI1690
aI1700
aI1710
aI1720
aI1730
aI1740
aI1750
aI1760
aI1770
aI1780
aI1790
aI1800
aI1810
aI1820
aI1830
aI1840
aI1850
aI1860
aI1870
aI1880
aI1890
aI1900
aI1910
aI1920
aI1930
aI1940
aI1950
aI1960
aI1970
aI1980
aI1990
aI2000
aI2010
aI2020
aI2030
aI2040
aI2050
aI2060
aI2070
aI2080
aI2090
aI2100
aI2110
aI2120
aI2130
aI2140
aI2150
aI2160
aI2170
aI2180
aI2190
aI2200
aI2210
aI2220
aI2230
aI2240
aI2250
aI2260
aI2270
aI2280
aI2290
aI2300
aI2310
aI2320
aI2330
aI2340
aI2350
aI2360
aI2370
aI2380
aI2390
aI2400
aI2410
aI2420
aI2430
aI2440
aI2450
aI2460
aI2470
aI2480
aI2490
aI2500
aI2510
aI2520
aI2530
aI2540
aI2550
aI2560
aI2570
aI2580
aI2590
aI2600
aI2610
aI2620
aI2630
aI2640
aI2650
aI2660
aI2670
aI2680
aI2690
aI2700
aI2710
aI2720
aI2730
aI2740
aI2750
aI2760
aI2770
aI2780
aI2790
aI2800
aI2810
aI2820
aI2830
aI2840
aI2850
aI2860
aI2870
aI2880
aI2890
aI2900
aI2910
aI2920
aI2930
aI2940
aI2950
aI2960
aI2970
aI2980
aI2990
aI3000
aI3010
aI3020
aI3030
aI3040
aI3050
aI3060
aI3070
aI3080
aI3090
aI3100
aI3110
aI3120
aI3130
aI3140
aI3150
aI3160
aI3170
aI3180
aI3190
aI3200
aI3210
aI3220
aI3230
aI3240
aI3250
aI3260
aI3270
aI3280
aI3290
aI3300
aI3310
aI3320
aI3330
aI3340
aI3350
aI3360
aI3370
aI3380
aI3390
aI3400
aI3410
aI3420
aI3430
aI3440
aI3450
aI3460
aI3470
aI3480
aI3490
aI3500
aI3510
aI3520
aI3530
aI3540
aI3550
aI3560
aI3570
aI3580
aI3590
aI3600
aI3610
aI3620
aI3630
aI3640
aI3650
aI3660
aI3670
aI3680
aI3690
aI3700
aI3710
aI3720
aI3730
aI3740
aI3750
aI3760
aI3770
aI3780
aI3790
aI3800
aI3810
asg5
(lp12
I144
aI144
aI146
aI149
aI153
aI159
aI162
aI167
aI170
aI173
aI173
aI173
aI173
aI174
aI170
aI171
aI170
aI167
aI166
aI164
aI163
aI165
aI165
aI165
aI164
aI163
aI161
aI160
aI159
aI158
aI157
aI156
aI155
aI154
aI153
aI152
aI151
aI150
aI149
aI148
aI148
aI147
aI147
aI147
aI146
aI145
aI145
aI144
aI144
aI143
aI143
aI142
aI142
aI141
aI141
aI141
aI142
aI146
aI146
aI146
aI146
aI145
aI145
aI145
aI144
aI144
aI146
aI145
aI145
aI145
aI145
aI144
aI144
aI144
aI144
aI144
aI143
aI143
aI143
aI143
aI142
aI142
aI142
aI142
aI142
aI147
aI157
aI167
aI177
aI187
aI197
aI203
aI203
aI203
aI204
aI205
aI204
aI204
aI204
aI204
aI204
aI205
aI204
aI204
aI204
aI204
aI204
aI207
aI208
aI207
aI207
aI207
aI207
aI207
aI207
aI207
aI207
aI206
aI206
aI206
aI207
aI207
aI207
aI207
aI207
aI207
aI207
aI206
aI206
aI206
aI206
aI206
aI206
aI206
aI206
aI206
aI206
aI206
aI207
aI206
aI206
aI206
aI206
aI206
aI206
aI206
aI206
aI206
aI206
aI206
aI206
aI205
aI205
aI205
aI205
aI205
aI205
aI205
aI205
aI205
aI205
aI205
aI205
aI205
aI205
aI205
aI204
aI204
aI204
aI204
aI204
aI204
aI204
aI204
aI204
aI204
aI204
aI204
aI204
aI204
aI204
aI204
aI204
aI203
aI203
aI203
aI203
aI203
aI203
aI203
aI203
aI203
aI203
aI203
aI203
aI203
aI203
aI203
aI203
aI203
aI203
aI203
aI203
aI203
aI202
aI202
aI202
aI202
aI202
aI202
aI202
aI202
aI202
aI202
aI202
aI202
aI202
aI202
aI202
aI202
aI202
aI202
aI202
aI202
aI202
aI202
aI202
aI202
aI203
aI203
aI202
aI202
aI202
aI202
aI202
aI202
aI202
aI202
aI202
aI202
aI202
aI202
aI202
aI202
aI202
aI202
aI202
aI202
aI202
aI202
aI202
aI202
aI202
aI202
aI202
aI202
aI202
aI202
aI202
aI202
aI202
aI202
aI202
aI202
aI202
aI201
aI201
aI201
aI201
aI201
aI201
aI201
aI201
aI201
aI201
aI201
aI201
aI201
aI201
aI201
aI201
aI201
aI201
aI201
aI201
aI201
aI201
aI201
aI201
aI201
aI201
aI201
aI201
aI201
aI201
aI201
aI201
aI201
aI201
aI201
aI201
aI201
aI201
aI200
aI200
aI200
aI200
aI200
aI200
aI200
aI200
aI200
aI200
aI200
aI200
aI200
aI200
aI200
aI200
aI200
aI200
aI200
aI200
aI200
aI200
aI200
aI200
aI200
aI200
aI200
aI200
aI200
aI200
aI200
aI200
aI200
aI200
aI200
aI200
aI200
aI200
aI200
aI200
aI200
aI200
aI199
aI199
aI199
aI199
aI199
aI199
aI199
aI199
aI199
aI199
aI199
aI199
aI199
aI199
aI199
aI199
aI199
aI199
aI199
aI199
aI199
aI199
aI199
aI199
aI199
aI199
aI199
aI199
aI199
aI199
aI199
aI199
aI199
aI199
aI199
aI199
aI203
asg7
(lp13
I0
aI7
aI16
aI25
aI35
aI44
aI53
aI61
aI69
aI74
aI79
aI84
aI90
aI91
aI97
aI101
aI103
aI105
aI107
aI109
aI114
aI116
aI117
aI118
aI118
aI118
aI118
aI118
aI118
aI118
aI118
aI118
aI118
aI118
aI118
aI118
aI118
aI118
aI118
aI118
aI118
aI119
aI119
aI119
aI119
aI119
aI119
aI119
aI119
aI119
aI119
aI119
aI119
aI119
aI120
aI121
aI125
aI126
aI126
aI126
aI126
aI126
aI126
aI126
aI126
aI128
aI128
aI128
aI128
aI128
aI128
aI128
aI128
aI128
aI128
aI128
aI128
aI128
aI128
aI128
aI128
aI128
aI128
aI128
aI133
aI143
aI153
aI163
aI173
aI183
aI189
aI189
aI189
aI190
aI191
aI191
aI191
aI191
aI191
aI191
aI192
aI192
aI192
aI192
aI192
aI192
aI195
aI196
aI196
aI196
aI196
aI196
aI196
aI196
aI196
aI196
aI196
aI196
aI196
aI197
aI197
aI197
aI197
aI197
aI197
aI197
aI197
aI197
aI197
aI197
aI197
aI197
aI197
aI197
aI197
aI197
aI197
aI198
aI198
aI198
aI198
aI198
aI198
aI198
aI198
aI198
aI198
aI198
aI198
aI198
aI198
aI198
aI198
aI198
aI198
aI198
aI198
aI198
aI198
aI198
aI198
aI198
aI198
aI198
aI198
aI198
aI198
aI198
aI198
aI198
aI198
aI198
aI198
aI198
aI198
aI198
aI198
aI198
aI198
aI198
aI198
aI198
aI198
aI198
aI198
aI198
aI198
aI198
aI198
aI198
aI198
aI198
aI198
aI198
aI198
aI198
aI198
aI198
aI198
aI198
aI198
aI198
aI198
aI198
aI198
aI198
aI198
aI198
aI198
aI198
aI198
aI198
aI198
aI198
aI198
aI198
aI198
aI198
aI198
aI198
aI198
aI198
aI198
aI198
aI198
aI198
aI198
aI199
aI199
aI199
aI199
aI199
aI199
aI199
aI199
aI199
aI199
aI199
aI199
aI199
aI199
aI199
aI199
aI199
aI199
aI199
aI199
aI199
aI199
aI199
aI199
aI199
aI199
aI199
aI199
aI199
aI199
aI199
aI199
aI199
aI199
aI199
aI199
aI199
aI199
aI199
aI199
aI199
aI199
aI199
aI199
aI199
aI199
aI199
aI199
aI199
aI199
aI199
aI199
aI199
aI199
aI199
aI199
aI199
aI199
aI199
aI199
aI199
aI199
aI199
aI199
aI199
aI199
aI199
aI199
aI199
aI199
aI199
aI199
aI199
aI199
aI199
aI199
aI199
aI199
aI199
aI199
aI199
aI199
aI199
aI199
aI199
aI199
aI199
aI199
aI199
aI199
aI199
aI199
aI199
aI199
aI199
aI199
aI199
aI199
aI199
aI199
aI199
aI199
aI199
aI199
aI199
aI199
aI199
aI199
aI199
aI199
aI199
aI199
aI199
aI199
aI199
aI199
aI199
aI199
aI199
aI199
aI199
aI199
aI199
aI199
aI199
aI199
aI199
aI199
aI199
aI199
aI199
aI199
aI199
aI199
aI199
aI199
aI199
aI199
aI199
aI199
aI199
aI199
aI199
aI199
aI199
aI199
aI199
aI199
aI199
aI199
aI199
aI199
aI199
aI203
aI209
asS'thres'
p14
I335
ssS'true'
p15
(lp16
I209
aI4408
as.