(dp0
S'x'
p1
(lp2
I0
aI10
aI20
aI30
aI40
aI50
aI60
aI70
aI80
aI90
aI100
aI110
aI120
aI130
aI140
aI150
aI160
aI170
aI180
aI190
aI200
aI210
aI220
aI230
aI240
aI250
aI260
aI270
aI280
aI290
aI300
aI310
aI320
aI330
aI340
aI350
aI360
aI370
aI380
aI390
aI400
aI410
aI420
aI430
aI440
aI450
aI460
aI470
aI480
aI490
aI500
aI510
aI520
aI530
aI540
aI550
aI560
aI570
aI580
aI590
aI600
aI610
aI620
aI630
aI640
aI650
aI660
aI670
aI680
aI690
aI700
aI710
aI720
aI730
aI740
aI750
aI760
aI770
aI780
aI790
aI800
aI810
aI820
aI830
aI840
aI850
aI860
aI870
aI880
aI890
aI900
aI910
aI920
aI930
aI940
aI950
aI960
aI970
aI980
aI990
aI1000
aI1010
aI1020
aI1030
aI1040
aI1050
aI1060
aI1070
aI1080
aI1090
aI1100
aI1110
aI1120
aI1130
aI1140
aI1150
aI1160
aI1170
aI1180
aI1190
aI1200
aI1210
aI1220
aI1230
aI1240
aI1250
aI1260
aI1270
aI1280
aI1290
aI1300
aI1310
aI1320
aI1330
aI1340
aI1350
aI1360
aI1370
aI1380
aI1390
aI1400
aI1410
aI1420
aI1430
aI1440
aI1450
aI1460
aI1470
aI1480
aI1490
aI1500
aI1510
aI1520
aI1530
aI1540
aI1550
asS'est'
p3
(lp4
I350
aI350
aI356
aI362
aI368
aI374
aI379
aI384
aI390
aI396
aI403
aI408
aI414
aI420
aI425
aI430
aI436
aI442
aI447
aI450
aI454
aI458
aI461
aI459
aI464
aI465
aI468
aI471
aI476
aI480
aI479
aI482
aI482
aI485
aI490
aI493
aI492
aI493
aI499
aI500
aI503
aI508
aI511
aI513
aI514
aI517
aI522
aI521
aI524
aI526
aI531
aI531
aI535
aI539
aI540
aI543
aI545
aI547
aI550
aI554
aI559
aI559
aI563
aI566
aI567
aI570
aI571
aI573
aI577
aI579
aI582
aI581
aI582
aI586
aI586
aI589
aI592
aI596
aI600
aI603
aI604
aI604
aI608
aI609
aI609
aI609
aI608
aI608
aI608
aI608
aI608
aI608
aI608
aI608
aI608
aI608
aI608
aI607
aI607
aI607
aI607
aI607
aI607
aI607
aI607
aI606
aI606
aI606
aI606
aI606
aI606
aI605
aI605
aI605
aI605
aI605
aI605
aI605
aI605
aI605
aI605
aI605
aI605
aI605
aI605
aI604
aI604
aI604
aI604
aI604
aI604
aI604
aI604
aI604
aI604
aI603
aI603
aI603
aI603
aI603
aI603
aI603
aI603
aI603
aI603
aI602
aI602
aI602
aI602
aI602
aI602
aI602
aI602
aI602
aI602
aI601
asS'true'
p5
(lp6
I622
aI4897
asS'pos'
p7
(lp8
I0
aI10
aI20
aI30
aI40
aI49
aI59
aI69
aI79
aI89
aI99
aI109
aI119
aI128
aI138
aI148
aI158
aI167
aI175
aI182
aI191
aI197
aI197
aI206
aI210
aI217
aI223
aI231
aI238
aI242
aI250
aI253
aI259
aI268
aI275
aI276
aI282
aI291
aI295
aI303
aI312
aI318
aI324
aI329
aI335
aI345
aI346
aI353
aI359
aI368
aI372
aI380
aI388
aI392
aI399
aI405
aI411
aI417
aI426
aI435
aI439
aI446
aI453
aI458
aI466
aI469
aI473
aI481
aI488
aI495
aI497
aI502
aI511
aI516
aI523
aI531
aI538
aI546
aI553
aI558
aI560
aI568
aI571
aI571
aI571
aI571
aI571
aI571
aI571
aI571
aI571
aI571
aI571
aI571
aI571
aI571
aI571
aI571
aI571
aI571
aI571
aI571
aI571
aI571
aI571
aI571
aI571
aI571
aI571
aI571
aI571
aI571
aI571
aI571
aI571
aI571
aI571
aI571
aI571
aI571
aI571
aI571
aI571
aI571
aI571
aI571
aI571
aI571
aI571
aI571
aI571
aI571
aI571
aI571
aI571
aI571
aI571
aI571
aI571
aI571
aI571
aI571
aI571
aI571
aI571
aI571
aI571
aI571
aI571
aI571
aI571
aI571
aI571
aI571
aI571
aI571
as.