(dp0
S'active'
p1
(dp2
S'x'
p3
(lp4
I0
aI10
aI20
aI30
aI40
aI50
aI60
aI70
aI80
aI90
aI100
aI110
aI120
aI130
aI140
aI150
aI160
aI170
aI180
aI190
aI200
aI210
aI220
aI230
aI240
aI250
aI260
aI270
aI280
aI290
aI300
aI310
aI320
aI330
aI340
aI350
aI360
aI370
aI380
aI390
aI400
aI410
aI420
aI430
aI440
aI450
aI460
aI470
aI480
aI490
aI500
aI510
aI520
aI530
aI540
aI550
aI560
aI570
aI580
aI590
aI600
aI610
aI620
aI630
aI640
aI650
aI660
aI670
aI680
aI690
aI700
aI710
aI720
aI730
aI740
aI750
aI760
aI770
aI780
aI790
aI800
aI810
aI820
aI830
aI840
aI850
aI860
aI870
aI880
aI890
aI900
aI910
aI920
aI930
aI940
aI950
aI960
aI970
aI980
aI990
aI1000
aI1010
aI1020
aI1030
aI1040
aI1050
aI1060
aI1070
aI1080
aI1090
aI1100
aI1110
aI1120
aI1130
aI1140
aI1150
aI1160
aI1170
aI1180
aI1190
aI1200
aI1210
aI1220
aI1230
aI1240
aI1250
aI1260
aI1270
aI1280
aI1290
aI1300
aI1310
aI1320
aI1330
aI1340
aI1350
aI1360
aI1370
aI1380
aI1390
aI1400
aI1410
aI1420
aI1430
aI1440
aI1450
aI1460
aI1470
aI1480
aI1490
aI1500
aI1510
aI1520
aI1530
aI1540
aI1550
aI1560
aI1570
aI1580
aI1590
aI1600
aI1610
aI1620
aI1630
aI1640
aI1650
aI1660
aI1670
aI1680
aI1690
aI1700
aI1710
aI1720
aI1730
aI1740
aI1750
aI1760
aI1770
aI1780
aI1790
aI1800
aI1810
aI1820
aI1830
aI1840
aI1850
aI1860
aI1870
aI1880
aI1890
aI1900
aI1910
aI1920
aI1930
aI1940
aI1950
aI1960
aI1970
aI1980
aI1990
aI2000
aI2010
aI2020
aI2030
aI2040
aI2050
aI2060
aI2070
aI2080
aI2090
aI2100
aI2110
aI2120
aI2130
aI2140
aI2150
aI2160
aI2170
aI2180
aI2190
aI2200
aI2210
aI2220
aI2230
aI2240
aI2250
aI2260
aI2270
aI2280
aI2290
aI2300
aI2310
aI2320
aI2330
aI2340
aI2350
aI2360
aI2370
aI2380
aI2390
aI2400
aI2410
aI2420
aI2430
aI2440
aI2450
aI2460
aI2470
aI2480
aI2490
aI2500
aI2510
aI2520
aI2530
aI2540
aI2550
aI2560
aI2570
aI2580
aI2590
aI2600
aI2610
aI2620
aI2630
aI2640
aI2650
aI2660
aI2670
aI2680
aI2690
aI2700
aI2710
aI2720
aI2730
aI2740
aI2750
aI2760
aI2770
aI2780
aI2790
aI2800
aI2810
aI2820
aI2830
aI2840
aI2850
aI2860
aI2870
aI2880
aI2890
aI2900
aI2910
aI2920
aI2930
aI2940
aI2950
aI2960
aI2970
aI2980
aI2990
aI3000
aI3010
aI3020
aI3030
aI3040
aI3050
aI3060
aI3070
aI3080
aI3090
aI3100
aI3110
aI3120
aI3130
aI3140
aI3150
aI3160
aI3170
aI3180
aI3190
aI3200
aI3210
aI3220
aI3230
aI3240
aI3250
aI3260
aI3270
aI3280
aI3290
aI3300
aI3310
aI3320
aI3330
aI3340
aI3350
aI3360
aI3370
aI3380
aI3390
aI3400
aI3410
aI3420
aI3430
aI3440
aI3450
aI3460
aI3470
aI3480
aI3490
aI3500
aI3510
aI3520
aI3530
aI3540
aI3550
aI3560
aI3570
aI3580
aI3590
aI3600
aI3610
aI3620
aI3630
aI3640
aI3650
aI3660
aI3670
aI3680
aI3690
aI3700
aI3710
aI3720
aI3730
aI3740
aI3750
aI3760
aI3770
aI3780
aI3790
aI3800
aI3810
aI3820
aI3830
aI3840
asS'est'
p5
(lp6
I0
aI0
aI93
aI72
aI71
aI74
aI79
aI69
aI74
aI98
aI106
aI112
aI141
aI140
aI164
aI159
aI166
aI179
aI188
aI200
aI208
aI226
aI227
aI237
aI266
aI275
aI283
aI303
aI331
aI348
aI366
aI390
aI405
aI428
aI424
aI456
aI477
aI483
aI506
aI520
aI548
aI572
aI587
aI607
aI626
aI704
aI690
aI692
aI696
aI701
aI708
aI713
aI731
aI732
aI743
aI759
aI779
aI800
aI805
aI818
aI864
aI861
aI855
aI826
aI824
aI812
aI811
aI795
aI782
aI783
aI755
aI759
aI752
aI742
aI737
aI735
aI734
aI715
aI712
aI698
aI723
aI696
aI700
aI695
aI697
aI692
aI686
aI678
aI681
aI674
aI663
aI666
aI662
aI651
aI652
aI643
aI664
aI660
aI657
aI643
aI653
aI639
aI633
aI643
aI635
aI637
aI625
aI623
aI624
aI623
aI619
aI617
aI619
aI615
aI613
aI616
aI613
aI609
aI612
aI611
aI611
aI615
aI614
aI610
aI611
aI612
aI611
aI609
aI608
aI611
aI609
aI608
aI611
aI611
aI611
aI608
aI611
aI609
aI610
aI608
aI611
aI611
aI611
aI609
aI610
aI610
aI609
aI609
aI610
aI610
aI608
aI608
aI609
aI611
aI610
aI611
aI609
aI608
aI609
aI608
aI608
aI607
aI608
aI610
aI608
aI609
aI608
aI608
aI609
aI610
aI610
aI610
aI609
aI610
aI610
aI609
aI609
aI610
aI609
aI610
aI610
aI611
aI611
aI610
aI610
aI610
aI610
aI610
aI610
aI610
aI609
aI609
aI611
aI611
aI610
aI610
aI611
aI611
aI611
aI611
aI611
aI611
aI611
aI611
aI611
aI612
aI611
aI611
aI611
aI612
aI614
aI613
aI613
aI613
aI613
aI613
aI613
aI613
aI613
aI613
aI612
aI613
aI612
aI612
aI612
aI612
aI612
aI612
aI612
aI612
aI612
aI612
aI612
aI612
aI611
aI612
aI612
aI612
aI612
aI612
aI612
aI612
aI612
aI613
aI613
aI613
aI613
aI613
aI614
aI615
aI615
aI615
aI615
aI615
aI615
aI615
aI615
aI615
aI615
aI615
aI616
aI616
aI616
aI616
aI616
aI616
aI616
aI616
aI616
aI617
aI617
aI618
aI618
aI618
aI618
aI618
aI618
aI618
aI618
aI618
aI618
aI618
aI619
aI619
aI619
aI619
aI619
aI618
aI618
aI618
aI618
aI620
aI620
aI620
aI620
aI620
aI620
aI621
aI621
aI622
aI622
aI622
aI623
aI623
aI623
aI622
aI623
aI623
aI623
aI623
aI623
aI623
aI623
aI623
aI623
aI623
aI623
aI623
aI623
aI622
aI623
aI623
aI622
aI622
aI622
aI622
aI622
aI622
aI622
aI621
aI621
aI622
aI622
aI621
aI622
aI621
aI622
aI622
aI622
aI622
aI623
aI623
aI623
aI623
aI623
aI624
aI625
aI625
aI625
aI625
aI625
aI625
aI626
aI626
aI626
aI626
aI627
aI627
aI627
aI627
aI627
aI627
aI626
aI626
aI626
aI626
aI626
aI626
aI626
aI625
aI626
aI626
aI626
aI626
aI625
aI624
aI625
aI626
aI626
aI625
aI625
aI626
aI625
aI625
aI625
asS'pos'
p7
(lp8
I0
aI1
aI3
aI8
aI16
aI24
aI33
aI36
aI46
aI54
aI64
aI74
aI84
aI93
aI99
aI107
aI117
aI126
aI136
aI145
aI155
aI162
aI172
aI182
aI192
aI202
aI212
aI222
aI231
aI241
aI251
aI259
aI269
aI276
aI286
aI296
aI306
aI316
aI326
aI336
aI345
aI355
aI364
aI374
aI384
aI394
aI404
aI414
aI424
aI434
aI444
aI454
aI464
aI473
aI483
aI493
aI503
aI513
aI521
aI531
aI535
aI539
aI539
aI539
aI540
aI541
aI541
aI541
aI544
aI545
aI547
aI547
aI547
aI548
aI548
aI548
aI548
aI549
aI549
aI551
aI553
aI554
aI557
aI561
aI563
aI564
aI564
aI564
aI565
aI565
aI565
aI565
aI566
aI566
aI569
aI576
aI578
aI578
aI578
aI578
aI578
aI579
aI579
aI579
aI579
aI579
aI579
aI579
aI580
aI580
aI580
aI580
aI580
aI580
aI580
aI580
aI580
aI581
aI582
aI583
aI585
aI586
aI586
aI586
aI586
aI587
aI587
aI587
aI589
aI589
aI589
aI590
aI590
aI590
aI590
aI592
aI593
aI593
aI593
aI594
aI595
aI595
aI595
aI596
aI596
aI596
aI596
aI596
aI596
aI596
aI596
aI597
aI598
aI598
aI598
aI598
aI598
aI598
aI598
aI598
aI598
aI598
aI599
aI599
aI599
aI599
aI600
aI600
aI602
aI602
aI602
aI602
aI602
aI602
aI602
aI602
aI603
aI603
aI603
aI603
aI604
aI604
aI604
aI604
aI604
aI604
aI604
aI604
aI604
aI604
aI604
aI605
aI605
aI605
aI605
aI607
aI607
aI607
aI607
aI607
aI607
aI607
aI607
aI607
aI608
aI608
aI608
aI608
aI609
aI610
aI610
aI610
aI610
aI610
aI610
aI610
aI610
aI610
aI610
aI610
aI610
aI610
aI610
aI610
aI610
aI610
aI610
aI610
aI610
aI610
aI610
aI610
aI610
aI610
aI611
aI611
aI611
aI611
aI611
aI611
aI611
aI611
aI612
aI612
aI612
aI612
aI612
aI613
aI614
aI614
aI614
aI614
aI614
aI614
aI614
aI614
aI614
aI614
aI614
aI615
aI615
aI615
aI615
aI615
aI615
aI615
aI615
aI615
aI616
aI616
aI617
aI617
aI617
aI617
aI617
aI617
aI617
aI617
aI617
aI617
aI617
aI618
aI618
aI618
aI618
aI618
aI618
aI618
aI618
aI618
aI619
aI619
aI619
aI619
aI619
aI619
aI619
aI620
aI621
aI621
aI621
aI621
aI621
aI621
aI621
aI621
aI621
aI621
aI621
aI621
aI621
aI621
aI621
aI621
aI621
aI621
aI621
aI621
aI621
aI621
aI621
aI621
aI621
aI621
aI621
aI621
aI621
aI621
aI621
aI621
aI621
aI621
aI621
aI621
aI621
aI621
aI621
aI621
aI621
aI621
aI621
aI621
aI621
aI621
aI621
aI621
aI621
aI621
aI621
aI621
aI621
aI621
aI621
aI621
aI621
aI621
aI621
aI621
aI621
aI621
aI621
aI621
aI621
aI621
aI621
aI621
aI621
aI621
aI621
aI621
aI621
aI621
aI621
aI621
aI621
aI621
aI621
aI621
aI621
aI621
aI621
aI621
aI621
aI621
aI622
assS'supervised'
p9
(dp10
g3
(lp11
I0
aI10
aI20
aI30
aI40
aI50
aI60
aI70
aI80
aI90
aI100
aI110
aI120
aI130
aI140
aI150
aI160
aI170
aI180
aI190
aI200
aI210
aI220
aI230
aI240
aI250
aI260
aI270
aI280
aI290
aI300
aI310
aI320
aI330
aI340
aI350
aI360
aI370
aI380
aI390
aI400
aI410
aI420
aI430
aI440
aI450
aI460
aI470
aI480
aI490
aI500
aI510
aI520
aI530
aI540
aI550
aI560
aI570
aI580
aI590
aI600
aI610
aI620
aI630
aI640
aI650
aI660
aI670
aI680
aI690
aI700
aI710
aI720
aI730
aI740
aI750
aI760
aI770
aI780
aI790
aI800
aI810
aI820
aI830
aI840
aI850
aI860
aI870
aI880
aI890
aI900
aI910
aI920
aI930
aI940
aI950
aI960
aI970
aI980
aI990
aI1000
aI1010
aI1020
aI1030
aI1040
aI1050
aI1060
aI1070
aI1080
aI1090
aI1100
aI1110
aI1120
aI1130
aI1140
aI1150
aI1160
aI1170
aI1180
aI1190
aI1200
aI1210
aI1220
aI1230
aI1240
aI1250
aI1260
aI1270
aI1280
aI1290
aI1300
aI1310
aI1320
aI1330
aI1340
aI1350
aI1360
aI1370
aI1380
aI1390
aI1400
aI1410
aI1420
aI1430
aI1440
aI1450
aI1460
aI1470
aI1480
aI1490
aI1500
aI1510
aI1520
aI1530
aI1540
aI1550
aI1560
aI1570
aI1580
aI1590
aI1600
aI1610
aI1620
aI1630
aI1640
aI1650
aI1660
aI1670
aI1680
aI1690
aI1700
aI1710
aI1720
aI1730
aI1740
aI1750
aI1760
aI1770
aI1780
aI1790
aI1800
aI1810
aI1820
aI1830
aI1840
aI1850
aI1860
aI1870
aI1880
aI1890
aI1900
aI1910
aI1920
aI1930
aI1940
aI1950
aI1960
aI1970
aI1980
aI1990
aI2000
aI2010
aI2020
aI2030
aI2040
aI2050
aI2060
aI2070
aI2080
aI2090
aI2100
aI2110
aI2120
aI2130
aI2140
aI2150
aI2160
aI2170
aI2180
aI2190
aI2200
aI2210
aI2220
aI2230
aI2240
aI2250
aI2260
aI2270
aI2280
aI2290
aI2300
aI2310
aI2320
aI2330
aI2340
aI2350
aI2360
aI2370
aI2380
aI2390
aI2400
aI2410
aI2420
aI2430
aI2440
aI2450
aI2460
aI2470
aI2480
aI2490
aI2500
aI2510
aI2520
aI2530
aI2540
aI2550
aI2560
aI2570
aI2580
aI2590
aI2600
aI2610
aI2620
aI2630
aI2640
aI2650
aI2660
aI2670
aI2680
aI2690
aI2700
aI2710
aI2720
aI2730
aI2740
aI2750
aI2760
aI2770
aI2780
aI2790
aI2800
aI2810
aI2820
aI2830
aI2840
aI2850
aI2860
aI2870
aI2880
aI2890
aI2900
aI2910
aI2920
aI2930
aI2940
aI2950
aI2960
aI2970
aI2980
aI2990
aI3000
aI3010
aI3020
aI3030
aI3040
aI3050
aI3060
aI3070
aI3080
aI3090
aI3100
aI3110
aI3120
aI3130
aI3140
aI3150
aI3160
aI3170
aI3180
aI3190
aI3200
aI3210
aI3220
aI3230
aI3240
aI3250
aI3260
aI3270
aI3280
aI3290
aI3300
aI3310
aI3320
aI3330
aI3340
aI3350
aI3360
aI3370
aI3380
aI3390
aI3400
aI3410
aI3420
aI3430
aI3440
aI3450
aI3460
aI3470
aI3480
aI3490
aI3500
aI3510
aI3520
aI3530
aI3540
aI3550
aI3560
aI3570
aI3580
aI3590
aI3600
aI3610
aI3620
aI3630
aI3640
aI3650
aI3660
aI3670
aI3680
aI3690
aI3700
aI3710
aI3720
aI3730
aI3740
aI3750
aI3760
aI3770
aI3780
aI3790
aI3800
aI3810
aI3820
aI3830
aI3840
aI3850
aI3860
aI3870
aI3880
aI3890
aI3900
aI3910
aI3920
aI3930
aI3940
aI3950
aI3960
aI3970
aI3980
aI3990
aI4000
aI4010
aI4020
aI4030
aI4040
aI4050
aI4060
aI4070
aI4080
aI4090
aI4100
aI4110
aI4120
aI4130
aI4140
aI4150
aI4160
aI4170
aI4180
aI4190
aI4200
aI4210
aI4220
aI4230
aI4240
aI4250
aI4260
aI4270
aI4280
aI4290
aI4300
aI4310
aI4320
aI4330
aI4340
aI4350
aI4360
aI4370
aI4380
aI4390
aI4400
aI4410
aI4420
aI4430
aI4440
aI4450
aI4460
aI4470
aI4480
aI4490
aI4500
aI4510
aI4520
aI4530
aI4540
aI4550
aI4560
aI4570
aI4580
aI4590
aI4600
aI4610
aI4620
aI4630
aI4640
aI4650
aI4660
aI4670
aI4680
aI4690
aI4700
aI4710
aI4720
aI4730
aI4740
aI4750
aI4760
aI4770
aI4780
aI4790
aI4800
aI4810
aI4820
aI4830
aI4840
aI4850
aI4860
aI4870
aI4880
aI4890
aI4897
asg5
(lp12
I350
aI350
aI356
aI362
aI368
aI374
aI379
aI384
aI390
aI396
aI403
aI408
aI414
aI420
aI425
aI430
aI436
aI442
aI447
aI450
aI454
aI458
aI461
aI459
aI464
aI465
aI468
aI471
aI476
aI480
aI479
aI482
aI482
aI485
aI490
aI493
aI492
aI493
aI499
aI500
aI503
aI508
aI511
aI513
aI514
aI517
aI522
aI521
aI524
aI526
aI531
aI531
aI535
aI539
aI540
aI543
aI545
aI547
aI550
aI554
aI559
aI559
aI563
aI566
aI567
aI570
aI571
aI573
aI577
aI579
aI582
aI581
aI582
aI586
aI586
aI589
aI592
aI596
aI600
aI603
aI604
aI604
aI608
aI609
aI609
aI609
aI608
aI608
aI608
aI608
aI608
aI608
aI608
aI608
aI608
aI608
aI608
aI607
aI607
aI607
aI607
aI607
aI607
aI607
aI607
aI606
aI606
aI606
aI606
aI606
aI606
aI605
aI605
aI605
aI605
aI605
aI605
aI605
aI605
aI605
aI605
aI605
aI605
aI605
aI605
aI604
aI604
aI604
aI604
aI604
aI604
aI604
aI604
aI604
aI604
aI603
aI603
aI603
aI603
aI603
aI603
aI603
aI603
aI603
aI603
aI602
aI602
aI602
aI602
aI602
aI602
aI602
aI602
aI602
aI602
aI601
aI601
aI601
aI601
aI601
aI601
aI601
aI601
aI601
aI601
aI600
aI600
aI600
aI600
aI600
aI600
aI600
aI600
aI600
aI600
aI599
aI599
aI599
aI599
aI599
aI599
aI599
aI599
aI599
aI599
aI599
aI599
aI599
aI598
aI598
aI598
aI598
aI598
aI598
aI598
aI598
aI598
aI598
aI598
aI598
aI597
aI597
aI597
aI597
aI597
aI597
aI597
aI597
aI597
aI597
aI597
aI596
aI596
aI596
aI596
aI596
aI596
aI596
aI596
aI596
aI595
aI595
aI595
aI595
aI595
aI594
aI594
aI594
aI594
aI594
aI594
aI594
aI594
aI594
aI594
aI593
aI593
aI593
aI593
aI593
aI593
aI593
aI593
aI593
aI593
aI593
aI592
aI592
aI592
aI592
aI592
aI592
aI592
aI592
aI592
aI592
aI592
aI592
aI592
aI592
aI592
aI592
aI592
aI591
aI591
aI591
aI591
aI591
aI591
aI591
aI591
aI591
aI591
aI591
aI591
aI591
aI591
aI591
aI590
aI590
aI590
aI590
aI590
aI590
aI590
aI590
aI590
aI590
aI589
aI589
aI589
aI589
aI589
aI589
aI589
aI589
aI589
aI588
aI588
aI588
aI588
aI588
aI588
aI588
aI588
aI588
aI588
aI588
aI588
aI587
aI587
aI587
aI587
aI587
aI587
aI587
aI587
aI587
aI587
aI587
aI587
aI587
aI586
aI586
aI586
aI586
aI586
aI586
aI586
aI586
aI586
aI586
aI586
aI585
aI585
aI585
aI585
aI585
aI585
aI585
aI585
aI585
aI584
aI584
aI584
aI584
aI584
aI584
aI584
aI583
aI583
aI583
aI583
aI583
aI583
aI583
aI583
aI583
aI583
aI582
aI582
aI582
aI582
aI582
aI582
aI582
aI582
aI582
aI582
aI582
aI582
aI581
aI581
aI581
aI581
aI581
aI581
aI581
aI581
aI581
aI581
aI581
aI580
aI580
aI580
aI580
aI580
aI580
aI580
aI580
aI579
aI579
aI579
aI579
aI579
aI579
aI579
aI579
aI579
aI579
aI578
aI578
aI578
aI578
aI578
aI578
aI578
aI578
aI578
aI578
aI578
aI578
aI578
aI577
aI577
aI577
aI577
aI577
aI577
aI577
aI577
aI577
aI577
aI577
aI577
aI576
aI576
aI576
aI576
aI576
aI576
aI576
aI576
aI576
aI576
aI575
aI575
aI575
aI575
aI575
aI575
aI575
aI575
aI575
aI575
aI575
aI575
aI575
aI575
aI575
aI575
aI575
aI574
aI574
aI574
aI574
aI574
aI574
aI574
aI574
aI574
aI574
aI574
aI574
aI574
aI574
aI574
aI574
aI573
aI573
aI573
aI573
aI573
aI573
aI573
aI573
aI577
aI580
aI583
aI590
aI593
aI596
aI598
aI600
aI603
aI604
aI604
aI610
aI614
aI621
aI621
asg7
(lp13
I0
aI10
aI20
aI30
aI40
aI49
aI59
aI69
aI79
aI89
aI99
aI109
aI119
aI128
aI138
aI148
aI158
aI167
aI175
aI182
aI191
aI197
aI197
aI206
aI210
aI217
aI223
aI231
aI238
aI242
aI250
aI253
aI259
aI268
aI275
aI276
aI282
aI291
aI295
aI303
aI312
aI318
aI324
aI329
aI335
aI345
aI346
aI353
aI359
aI368
aI372
aI380
aI388
aI392
aI399
aI405
aI411
aI417
aI426
aI435
aI439
aI446
aI453
aI458
aI466
aI469
aI473
aI481
aI488
aI495
aI497
aI502
aI511
aI516
aI523
aI531
aI538
aI546
aI553
aI558
aI560
aI568
aI571
aI571
aI571
aI571
aI571
aI571
aI571
aI571
aI571
aI571
aI571
aI571
aI571
aI571
aI571
aI571
aI571
aI571
aI571
aI571
aI571
aI571
aI571
aI571
aI571
aI571
aI571
aI571
aI571
aI571
aI571
aI571
aI571
aI571
aI571
aI571
aI571
aI571
aI571
aI571
aI571
aI571
aI571
aI571
aI571
aI571
aI571
aI571
aI571
aI571
aI571
aI571
aI571
aI571
aI571
aI571
aI571
aI571
aI571
aI571
aI571
aI571
aI571
aI571
aI571
aI571
aI571
aI571
aI571
aI571
aI571
aI571
aI571
aI571
aI571
aI571
aI571
aI571
aI571
aI571
aI571
aI571
aI571
aI571
aI571
aI571
aI571
aI571
aI571
aI571
aI571
aI571
aI571
aI571
aI571
aI571
aI571
aI571
aI571
aI571
aI571
aI571
aI571
aI571
aI571
aI571
aI571
aI571
aI571
aI571
aI571
aI571
aI571
aI571
aI571
aI571
aI571
aI571
aI571
aI571
aI571
aI571
aI571
aI571
aI571
aI571
aI571
aI571
aI571
aI571
aI571
aI571
aI571
aI571
aI571
aI571
aI571
aI571
aI571
aI571
aI571
aI571
aI571
aI571
aI571
aI571
aI571
aI571
aI571
aI571
aI571
aI571
aI571
aI571
aI571
aI571
aI571
aI571
aI571
aI571
aI571
aI571
aI571
aI571
aI571
aI571
aI571
aI571
aI571
aI571
aI571
aI571
aI571
aI571
aI571
aI571
aI571
aI571
aI571
aI571
aI571
aI571
aI571
aI571
aI571
aI571
aI571
aI571
aI571
aI571
aI571
aI571
aI571
aI571
aI571
aI571
aI571
aI571
aI571
aI571
aI571
aI571
aI571
aI571
aI571
aI571
aI571
aI571
aI571
aI571
aI571
aI571
aI571
aI571
aI571
aI571
aI571
aI571
aI571
aI571
aI571
aI571
aI571
aI571
aI571
aI571
aI571
aI571
aI571
aI571
aI571
aI571
aI571
aI571
aI571
aI571
aI571
aI571
aI571
aI571
aI571
aI571
aI571
aI571
aI571
aI571
aI571
aI571
aI571
aI571
aI571
aI571
aI571
aI571
aI571
aI571
aI571
aI571
aI571
aI571
aI571
aI571
aI571
aI571
aI571
aI571
aI571
aI571
aI571
aI571
aI571
aI571
aI571
aI571
aI571
aI571
aI571
aI571
aI571
aI571
aI571
aI571
aI571
aI571
aI571
aI571
aI571
aI571
aI571
aI571
aI571
aI571
aI571
aI571
aI571
aI571
aI571
aI571
aI571
aI571
aI571
aI571
aI571
aI571
aI571
aI571
aI571
aI571
aI571
aI571
aI571
aI571
aI571
aI571
aI571
aI571
aI571
aI571
aI571
aI571
aI571
aI571
aI571
aI571
aI571
aI571
aI571
aI571
aI571
aI571
aI571
aI571
aI571
aI571
aI571
aI571
aI571
aI571
aI571
aI571
aI571
aI571
aI571
aI571
aI571
aI571
aI571
aI571
aI571
aI571
aI571
aI571
aI571
aI571
aI571
aI571
aI571
aI571
aI571
aI571
aI571
aI571
aI571
aI571
aI571
aI571
aI571
aI571
aI571
aI571
aI571
aI571
aI571
aI571
aI571
aI571
aI571
aI571
aI571
aI571
aI571
aI571
aI571
aI571
aI571
aI571
aI571
aI571
aI571
aI571
aI571
aI571
aI571
aI575
aI578
aI581
aI589
aI592
aI595
aI597
aI599
aI602
aI603
aI604
aI610
aI614
aI621
aI621
aI622
assS'true'
p14
(lp15
I622
aI4897
as.