(dp0
S'active'
p1
(dp2
S'x'
p3
(lp4
I0
aI10
aI20
aI30
aI40
aI50
aI60
aI70
aI80
aI90
aI100
aI110
aI120
aI130
aI140
aI150
aI160
aI170
aI180
aI190
aI200
aI210
aI220
aI230
aI240
aI250
aI260
aI270
aI280
aI290
aI300
aI310
aI320
aI330
aI340
aI350
aI360
aI370
aI380
aI390
aI400
aI410
aI420
aI430
aI440
aI450
aI460
aI470
aI480
aI490
aI500
aI510
aI520
aI530
aI540
aI550
aI560
aI570
aI580
aI590
aI600
aI610
aI620
aI630
aI640
aI650
aI660
aI670
aI680
aI690
aI700
aI710
aI720
aI730
aI740
aI750
aI760
aI770
aI780
aI790
aI800
aI810
aI820
aI830
aI840
aI850
aI860
aI870
aI880
aI890
aI900
aI910
aI920
aI930
aI940
aI950
aI960
aI970
aI980
aI990
aI1000
aI1010
aI1020
aI1030
aI1040
aI1050
aI1060
aI1070
aI1080
aI1090
aI1100
aI1110
aI1120
aI1130
aI1140
aI1150
aI1160
aI1170
aI1180
aI1190
aI1200
aI1210
aI1220
aI1230
aI1240
aI1250
aI1260
aI1270
aI1280
aI1290
aI1300
aI1310
aI1320
aI1330
aI1340
aI1350
aI1360
aI1370
aI1380
aI1390
aI1400
aI1410
aI1420
aI1430
aI1440
aI1450
aI1460
aI1470
aI1480
aI1490
aI1500
aI1510
aI1520
aI1530
aI1540
aI1550
aI1560
aI1570
aI1580
aI1590
aI1600
aI1610
aI1620
aI1630
aI1640
aI1650
aI1660
aI1670
aI1680
aI1690
aI1700
aI1710
aI1720
aI1730
aI1740
aI1750
aI1760
aI1770
aI1780
aI1790
aI1800
aI1810
aI1820
aI1830
aI1840
aI1850
aI1860
aI1870
aI1880
aI1890
aI1900
aI1910
aI1920
aI1930
aI1940
aI1950
aI1960
aI1970
aI1980
aI1990
aI2000
aI2010
aI2020
aI2030
aI2040
aI2050
aI2060
aI2070
aI2080
aI2090
aI2100
aI2110
aI2120
aI2130
aI2140
aI2150
aI2160
aI2170
aI2180
aI2190
aI2200
aI2210
aI2220
aI2230
aI2240
aI2250
aI2260
aI2270
aI2280
aI2290
aI2300
aI2310
aI2320
aI2330
aI2340
aI2350
aI2360
aI2370
aI2380
aI2390
aI2400
aI2410
aI2420
aI2430
aI2440
aI2450
aI2460
aI2470
aI2480
aI2490
aI2500
aI2510
aI2520
aI2530
aI2540
aI2550
aI2560
aI2570
aI2580
aI2590
aI2600
aI2610
aI2620
aI2630
aI2640
aI2650
aI2660
aI2670
aI2680
aI2690
aI2700
aI2710
aI2720
aI2730
aI2740
aI2750
aI2760
aI2770
aI2780
aI2790
aI2800
aI2810
aI2820
aI2830
aI2840
aI2850
aI2860
aI2870
aI2880
aI2890
aI2900
aI2910
aI2920
aI2930
aI2940
aI2950
aI2960
aI2970
aI2980
aI2990
aI3000
aI3010
aI3020
aI3030
aI3040
aI3050
aI3060
aI3070
aI3080
aI3090
aI3100
aI3110
aI3120
aI3130
aI3140
aI3150
aI3160
aI3170
aI3180
aI3190
aI3200
aI3210
aI3220
aI3230
aI3240
aI3250
aI3260
aI3270
aI3280
aI3290
aI3300
aI3310
aI3320
aI3330
aI3340
aI3350
aI3360
aI3370
aI3380
aI3390
aI3400
aI3410
aI3420
aI3430
aI3440
aI3450
aI3460
aI3470
aI3480
aI3490
aI3500
aI3510
aI3520
aI3530
aI3540
aI3550
aI3560
aI3570
aI3580
aI3590
aI3600
aI3610
aI3620
aI3630
aI3640
aI3650
aI3660
aI3670
aI3680
aI3690
aI3700
aI3710
aI3720
aI3730
aI3740
aI3750
aI3760
aI3770
aI3780
aI3790
aI3800
aI3810
aI3820
aI3830
aI3840
aI3850
aI3860
aI3870
aI3880
aI3890
aI3900
aI3910
aI3920
aI3930
aI3940
aI3950
aI3960
aI3970
aI3980
aI3990
aI4000
aI4010
aI4020
aI4030
aI4040
aI4050
aI4060
aI4070
aI4080
aI4090
aI4100
aI4110
aI4120
aI4130
aI4140
aI4150
aI4160
aI4170
aI4180
aI4190
aI4200
aI4210
aI4220
aI4230
aI4240
aI4250
aI4260
aI4270
aI4280
aI4290
aI4300
aI4310
aI4320
aI4330
aI4340
aI4350
aI4360
aI4370
aI4380
aI4390
aI4400
aI4410
aI4420
aI4430
aI4440
aI4450
aI4460
aI4470
aI4480
aI4490
aI4500
aI4510
aI4520
aI4530
aI4540
aI4550
aI4560
aI4570
aI4580
aI4590
aI4600
aI4610
aI4620
aI4630
aI4640
aI4650
aI4660
aI4670
aI4680
aI4690
aI4700
aI4710
aI4720
aI4730
aI4740
aI4750
aI4760
aI4770
aI4780
aI4790
aI4800
aI4810
aI4820
aI4830
aI4840
aI4850
aI4860
aI4870
aI4880
aI4890
aI4900
aI4910
aI4920
aI4930
aI4940
aI4950
aI4960
aI4970
aI4980
aI4990
aI5000
aI5010
aI5020
aI5030
aI5040
aI5050
aI5060
aI5070
aI5080
aI5090
aI5100
aI5110
aI5120
aI5130
aI5140
aI5150
aI5160
aI5170
aI5180
aI5190
aI5200
aI5210
aI5220
aI5230
aI5240
aI5250
aI5260
aI5270
aI5280
aI5290
aI5300
aI5310
aI5320
aI5330
aI5340
aI5350
aI5360
aI5370
aI5380
aI5390
aI5400
aI5410
aI5420
aI5430
aI5440
aI5450
aI5460
asS'est'
p5
(lp6
I0
aI0
aI0
aI0
aI118
aI111
aI113
aI113
aI111
aI112
aI94
aI89
aI93
aI93
aI93
aI95
aI102
aI97
aI100
aI64
aI65
aI93
aI131
aI187
aI253
aI290
aI334
aI382
aI419
aI456
aI487
aI520
aI560
aI597
aI587
aI581
aI589
aI596
aI574
aI547
aI557
aI548
aI537
aI527
aI517
aI510
aI509
aI490
aI469
aI461
aI458
aI482
aI482
aI449
aI444
aI436
aI444
aI421
aI433
aI427
aI396
aI406
aI417
aI399
aI394
aI365
aI404
aI381
aI370
aI352
aI354
aI356
aI345
aI353
aI335
aI338
aI325
aI329
aI335
aI313
aI314
aI322
aI311
aI317
aI291
aI303
aI303
aI301
aI298
aI295
aI285
aI292
aI294
aI291
aI277
aI283
aI283
aI287
aI290
aI272
aI277
aI273
aI274
aI276
aI283
aI279
aI283
aI275
aI277
aI273
aI293
aI292
aI290
aI283
aI290
aI289
aI293
aI290
aI286
aI290
aI277
aI279
aI291
aI283
aI280
aI276
aI285
aI278
aI283
aI286
aI285
aI286
aI281
aI281
aI278
aI280
aI283
aI284
aI279
aI283
aI279
aI278
aI281
aI274
aI273
aI277
aI277
aI274
aI274
aI272
aI277
aI289
aI280
aI279
aI282
aI284
aI279
aI279
aI273
aI282
aI276
aI276
aI277
aI277
aI280
aI277
aI272
aI276
aI276
aI276
aI273
aI275
aI271
aI273
aI271
aI273
aI272
aI271
aI274
aI272
aI275
aI276
aI272
aI273
aI273
aI272
aI273
aI272
aI272
aI270
aI270
aI271
aI271
aI273
aI269
aI272
aI272
aI273
aI274
aI271
aI272
aI271
aI272
aI270
aI273
aI271
aI271
aI274
aI274
aI272
aI272
aI273
aI274
aI272
aI274
aI275
aI276
aI274
aI276
aI276
aI275
aI274
aI274
aI276
aI275
aI274
aI273
aI275
aI274
aI273
aI273
aI272
aI273
aI272
aI274
aI274
aI274
aI272
aI273
aI273
aI272
aI273
aI273
aI273
aI274
aI273
aI273
aI273
aI273
aI273
aI273
aI273
aI273
aI274
aI272
aI272
aI274
aI274
aI274
aI274
aI273
aI275
aI274
aI274
aI275
aI275
aI274
aI274
aI274
aI275
aI273
aI274
aI273
aI275
aI273
aI274
aI273
aI274
aI274
aI273
aI273
aI274
aI274
aI273
aI274
aI274
aI273
aI273
aI273
aI273
aI273
aI273
aI273
aI273
aI273
aI274
aI273
aI274
aI274
aI274
aI273
aI274
aI273
aI273
aI273
aI273
aI274
aI275
aI274
aI274
aI274
aI274
aI274
aI275
aI274
aI275
aI274
aI275
aI274
aI276
aI275
aI276
aI275
aI276
aI276
aI275
aI275
aI275
aI276
aI276
aI277
aI275
aI276
aI276
aI276
aI276
aI276
aI276
aI276
aI276
aI275
aI275
aI276
aI275
aI275
aI276
aI276
aI278
aI279
aI279
aI279
aI279
aI280
aI279
aI279
aI279
aI279
aI279
aI279
aI279
aI279
aI279
aI288
aI288
aI287
aI288
aI286
aI288
aI287
aI286
aI285
aI285
aI283
aI284
aI284
aI284
aI283
aI286
aI284
aI282
aI283
aI284
aI285
aI284
aI282
aI280
aI280
aI281
aI281
aI281
aI281
aI280
aI282
aI282
aI282
aI281
aI281
aI281
aI281
aI280
aI283
aI282
aI282
aI282
aI282
aI282
aI282
aI282
aI282
aI282
aI282
aI286
aI284
aI284
aI284
aI285
aI285
aI285
aI285
aI285
aI285
aI285
aI285
aI284
aI284
aI284
aI284
aI284
aI284
aI284
aI284
aI284
aI284
aI284
aI284
aI284
aI284
aI284
aI284
aI284
aI284
aI284
aI284
aI284
aI284
aI284
aI284
aI284
aI284
aI284
aI284
aI284
aI284
aI284
aI283
aI283
aI284
aI285
aI285
aI285
aI285
aI285
aI285
aI285
aI285
aI285
aI285
aI285
aI285
aI285
aI286
aI286
aI285
aI286
aI286
aI286
aI286
aI286
aI286
aI286
aI286
aI286
aI286
aI286
aI286
aI286
aI285
aI285
aI285
aI286
aI286
aI286
aI286
aI286
aI286
aI286
aI286
aI286
aI287
aI287
aI287
aI287
aI288
aI288
aI288
aI288
aI288
aI293
aI291
aI313
aI297
aI295
aI291
aI290
aI290
aI289
aI289
aI290
aI289
aI289
aI288
aI287
aI288
aI288
aI288
aI287
aI288
aI287
aI287
aI287
aI288
aI289
aI290
aI290
aI290
aI289
aI289
aI288
aI288
aI287
aI287
aI287
aI287
aI287
aI286
aI286
aI286
asS'pos'
p7
(lp8
I0
aI0
aI0
aI1
aI1
aI1
aI1
aI1
aI2
aI3
aI4
aI8
aI12
aI14
aI17
aI21
aI24
aI27
aI31
aI31
aI41
aI51
aI61
aI69
aI79
aI89
aI98
aI107
aI115
aI125
aI135
aI144
aI153
aI161
aI165
aI165
aI166
aI167
aI168
aI168
aI170
aI171
aI172
aI172
aI172
aI172
aI173
aI173
aI174
aI174
aI177
aI178
aI178
aI179
aI181
aI182
aI182
aI182
aI183
aI185
aI185
aI185
aI185
aI187
aI189
aI190
aI190
aI190
aI190
aI190
aI190
aI190
aI190
aI190
aI190
aI190
aI190
aI190
aI190
aI190
aI190
aI190
aI190
aI190
aI190
aI190
aI190
aI191
aI192
aI192
aI194
aI194
aI196
aI196
aI196
aI197
aI197
aI197
aI198
aI198
aI199
aI202
aI205
aI206
aI207
aI207
aI207
aI209
aI210
aI220
aI229
aI229
aI229
aI230
aI231
aI231
aI231
aI231
aI231
aI231
aI232
aI232
aI232
aI232
aI233
aI234
aI234
aI236
aI237
aI238
aI239
aI239
aI239
aI239
aI239
aI241
aI242
aI242
aI242
aI242
aI242
aI242
aI242
aI242
aI243
aI243
aI243
aI244
aI245
aI247
aI254
aI254
aI254
aI254
aI254
aI254
aI254
aI254
aI255
aI255
aI255
aI255
aI255
aI255
aI255
aI255
aI255
aI255
aI255
aI255
aI255
aI256
aI256
aI256
aI256
aI256
aI256
aI256
aI256
aI256
aI256
aI256
aI256
aI257
aI257
aI257
aI257
aI258
aI258
aI258
aI259
aI259
aI259
aI259
aI259
aI259
aI259
aI260
aI260
aI260
aI260
aI260
aI260
aI260
aI260
aI262
aI262
aI262
aI262
aI262
aI264
aI264
aI264
aI264
aI266
aI266
aI266
aI266
aI266
aI266
aI266
aI266
aI266
aI266
aI266
aI266
aI266
aI266
aI266
aI266
aI266
aI266
aI266
aI266
aI266
aI266
aI266
aI266
aI266
aI266
aI267
aI267
aI267
aI267
aI267
aI267
aI267
aI267
aI267
aI267
aI267
aI267
aI267
aI267
aI267
aI268
aI268
aI268
aI268
aI268
aI269
aI269
aI269
aI269
aI269
aI269
aI269
aI269
aI269
aI269
aI269
aI269
aI269
aI269
aI269
aI269
aI269
aI269
aI269
aI269
aI269
aI269
aI269
aI269
aI269
aI269
aI269
aI269
aI269
aI269
aI269
aI269
aI269
aI269
aI270
aI270
aI270
aI270
aI270
aI270
aI270
aI270
aI270
aI270
aI270
aI271
aI271
aI271
aI271
aI271
aI271
aI271
aI271
aI271
aI271
aI271
aI271
aI271
aI272
aI272
aI272
aI272
aI272
aI272
aI272
aI272
aI272
aI273
aI273
aI273
aI273
aI273
aI273
aI273
aI273
aI273
aI273
aI273
aI273
aI273
aI273
aI273
aI273
aI273
aI273
aI273
aI275
aI277
aI277
aI277
aI277
aI277
aI277
aI277
aI277
aI277
aI277
aI277
aI277
aI277
aI277
aI277
aI277
aI277
aI277
aI277
aI277
aI277
aI277
aI277
aI277
aI277
aI277
aI277
aI277
aI277
aI277
aI277
aI277
aI277
aI277
aI277
aI277
aI277
aI277
aI277
aI277
aI277
aI277
aI277
aI277
aI279
aI279
aI279
aI279
aI279
aI279
aI279
aI279
aI280
aI280
aI280
aI280
aI280
aI280
aI280
aI280
aI280
aI280
aI280
aI281
aI281
aI282
aI282
aI283
aI283
aI283
aI283
aI283
aI283
aI283
aI283
aI283
aI283
aI283
aI283
aI283
aI283
aI283
aI283
aI283
aI283
aI283
aI283
aI283
aI283
aI283
aI283
aI283
aI283
aI283
aI283
aI283
aI283
aI283
aI283
aI283
aI283
aI283
aI283
aI283
aI283
aI283
aI283
aI283
aI284
aI285
aI285
aI285
aI285
aI285
aI285
aI285
aI285
aI285
aI285
aI285
aI285
aI285
aI285
aI285
aI285
aI285
aI285
aI285
aI285
aI285
aI285
aI285
aI285
aI285
aI285
aI285
aI285
aI285
aI285
aI285
aI285
aI285
aI285
aI285
aI285
aI285
aI285
aI285
aI285
aI285
aI285
aI285
aI285
aI285
aI285
aI285
aI285
aI285
aI285
aI285
aI285
aI285
aI285
aI285
aI285
aI285
aI285
aI285
aI285
aI285
aI285
aI285
aI285
aI285
aI285
aI285
aI285
aI285
aI285
aI285
aI285
aI285
aI285
aI285
aI285
aI285
aI285
aI285
aI285
aI285
aI285
aI285
aI285
aI285
aI285
aI285
aI285
aI285
aI285
aI286
assS'supervised'
p9
(dp10
g3
(lp11
I0
aI10
aI20
aI30
aI40
aI50
aI60
aI70
aI80
aI90
aI100
aI110
aI120
aI130
aI140
aI150
aI160
aI170
aI180
aI190
aI200
aI210
aI220
aI230
aI240
aI250
aI260
aI270
aI280
aI290
aI300
aI310
aI320
aI330
aI340
aI350
aI360
aI370
aI380
aI390
aI400
aI410
aI420
aI430
aI440
aI450
aI460
aI470
aI480
aI490
aI500
aI510
aI520
aI530
aI540
aI550
aI560
aI570
aI580
aI590
aI600
aI610
aI620
aI630
aI640
aI650
aI660
aI670
aI680
aI690
aI700
aI710
aI720
aI730
aI740
aI750
aI760
aI770
aI780
aI790
aI800
aI810
aI820
aI830
aI840
aI850
aI860
aI870
aI880
aI890
aI900
aI910
aI920
aI930
aI940
aI950
aI960
aI970
aI980
aI990
aI1000
aI1010
aI1020
aI1030
aI1040
aI1050
aI1060
aI1070
aI1080
aI1090
aI1100
aI1110
aI1120
aI1130
aI1140
aI1150
aI1160
aI1170
aI1180
aI1190
aI1200
aI1210
aI1220
aI1230
aI1240
aI1250
aI1260
aI1270
aI1280
aI1290
aI1300
aI1310
aI1320
aI1330
aI1340
aI1350
aI1360
aI1370
aI1380
aI1390
aI1400
aI1410
aI1420
aI1430
aI1440
aI1450
aI1460
aI1470
aI1480
aI1490
aI1500
aI1510
aI1520
aI1530
aI1540
aI1550
aI1560
aI1570
aI1580
aI1590
aI1600
aI1610
aI1620
aI1630
aI1640
aI1650
aI1660
aI1670
aI1680
aI1690
aI1700
aI1710
aI1720
aI1730
aI1740
aI1750
aI1760
aI1770
aI1780
aI1790
aI1800
aI1810
aI1820
aI1830
aI1840
aI1850
aI1860
aI1870
aI1880
aI1890
aI1900
aI1910
aI1920
aI1930
aI1940
aI1950
aI1960
aI1970
aI1980
aI1990
aI2000
aI2010
aI2020
aI2030
aI2040
aI2050
aI2060
aI2070
aI2080
aI2090
aI2100
aI2110
aI2120
aI2130
aI2140
aI2150
aI2160
aI2170
aI2180
aI2190
aI2200
aI2210
aI2220
aI2230
aI2240
aI2250
aI2260
aI2270
aI2280
aI2290
aI2300
aI2310
aI2320
aI2330
aI2340
aI2350
aI2360
aI2370
aI2380
aI2390
aI2400
aI2410
aI2420
aI2430
aI2440
aI2450
aI2460
aI2470
aI2480
aI2490
aI2500
aI2510
aI2520
aI2530
aI2540
aI2550
aI2560
aI2570
aI2580
aI2590
aI2600
aI2610
aI2620
aI2630
aI2640
aI2650
aI2660
aI2670
aI2680
aI2690
aI2700
aI2710
aI2720
aI2730
aI2740
aI2750
aI2760
aI2770
aI2780
aI2790
aI2800
aI2810
aI2820
aI2830
aI2840
aI2850
aI2860
aI2870
aI2880
aI2890
aI2900
aI2910
aI2920
aI2930
aI2940
aI2950
aI2960
aI2970
aI2980
aI2990
aI3000
aI3010
aI3020
aI3030
aI3040
aI3050
aI3060
aI3070
aI3080
aI3090
aI3100
aI3110
aI3120
aI3130
aI3140
aI3150
aI3160
aI3170
aI3180
aI3190
aI3200
aI3210
aI3220
aI3230
aI3240
aI3250
aI3260
aI3270
aI3280
aI3290
aI3300
aI3310
aI3320
aI3330
aI3340
aI3350
aI3360
aI3370
aI3380
aI3390
aI3400
aI3410
aI3420
aI3430
aI3440
aI3450
aI3460
aI3470
aI3480
aI3490
aI3500
aI3510
aI3520
aI3530
aI3540
aI3550
aI3560
aI3570
aI3580
aI3590
aI3600
aI3610
aI3620
aI3630
aI3640
aI3650
aI3660
aI3670
aI3680
aI3690
aI3700
aI3710
aI3720
aI3730
aI3740
aI3750
aI3760
aI3770
aI3780
aI3790
aI3800
aI3810
aI3820
aI3830
aI3840
aI3850
aI3860
aI3870
aI3880
aI3890
aI3900
aI3910
aI3920
aI3930
aI3940
aI3950
aI3960
aI3970
aI3980
aI3990
aI4000
aI4010
aI4020
aI4030
aI4040
aI4050
aI4060
aI4070
aI4080
aI4090
aI4100
aI4110
aI4120
aI4130
aI4140
aI4150
aI4160
aI4170
aI4180
aI4190
aI4200
aI4210
aI4220
aI4230
aI4240
aI4250
aI4260
aI4270
aI4280
aI4290
aI4300
aI4310
aI4320
aI4330
aI4340
aI4350
aI4360
aI4370
aI4380
aI4390
aI4400
aI4410
aI4420
aI4430
aI4440
aI4450
aI4460
aI4470
aI4480
aI4490
aI4500
aI4510
aI4520
aI4530
aI4540
aI4550
aI4560
aI4570
aI4580
aI4590
aI4600
aI4610
aI4620
aI4630
aI4640
aI4650
aI4660
aI4670
aI4680
aI4690
aI4700
aI4710
aI4720
aI4730
aI4740
aI4750
aI4760
aI4770
aI4780
aI4790
aI4800
aI4810
aI4820
aI4830
aI4840
aI4850
aI4860
aI4870
aI4880
aI4890
aI4900
aI4910
aI4920
aI4930
aI4940
aI4950
aI4960
aI4970
aI4980
aI4990
aI5000
aI5010
aI5020
aI5030
aI5040
aI5050
aI5060
aI5070
aI5080
aI5090
aI5100
aI5110
aI5120
aI5130
aI5140
aI5150
aI5160
aI5170
aI5180
aI5190
aI5200
aI5210
aI5220
aI5230
aI5240
aI5250
aI5260
aI5270
aI5280
aI5290
aI5300
aI5310
aI5320
aI5330
aI5340
aI5350
aI5360
aI5370
aI5380
aI5390
aI5400
aI5410
aI5420
aI5430
aI5440
aI5450
aI5460
aI5470
aI5480
aI5490
aI5500
aI5510
aI5520
aI5530
aI5540
aI5550
aI5560
aI5570
aI5580
aI5590
aI5600
aI5610
aI5620
aI5630
aI5640
aI5650
aI5660
aI5670
aI5680
aI5690
aI5700
aI5710
aI5720
aI5730
aI5740
aI5750
aI5760
aI5770
aI5780
aI5790
aI5800
aI5810
aI5820
aI5830
aI5840
aI5850
aI5860
aI5870
aI5880
aI5890
aI5900
aI5910
aI5920
aI5930
aI5940
aI5950
aI5960
aI5970
aI5980
aI5990
aI6000
aI6010
aI6020
aI6030
aI6040
aI6050
aI6060
aI6070
aI6080
aI6090
aI6100
aI6110
aI6120
aI6130
aI6140
aI6150
aI6160
aI6170
aI6180
aI6190
aI6200
aI6210
aI6220
aI6230
aI6240
aI6250
aI6260
aI6270
aI6280
aI6290
aI6300
aI6310
aI6320
aI6330
aI6340
aI6350
aI6360
aI6370
aI6380
aI6390
aI6400
aI6410
aI6420
aI6430
aI6440
aI6450
aI6460
aI6470
aI6480
aI6490
aI6500
aI6510
aI6520
aI6530
aI6540
aI6550
asg5
(lp12
I197
aI197
aI196
aI192
aI195
aI199
aI204
aI208
aI213
aI218
aI221
aI223
aI227
aI230
aI232
aI235
aI237
aI239
aI241
aI245
aI247
aI248
aI248
aI251
aI253
aI256
aI255
aI263
aI264
aI262
aI262
aI263
aI262
aI262
aI262
aI261
aI260
aI258
aI260
aI259
aI260
aI259
aI260
aI260
aI268
aI276
aI275
aI275
aI274
aI273
aI272
aI271
aI270
aI269
aI268
aI267
aI266
aI266
aI265
aI264
aI263
aI262
aI261
aI261
aI260
aI262
aI261
aI262
aI262
aI261
aI260
aI260
aI261
aI261
aI264
aI264
aI264
aI263
aI262
aI264
aI270
aI269
aI269
aI268
aI267
aI267
aI266
aI266
aI265
aI265
aI264
aI265
aI265
aI266
aI266
aI265
aI267
aI267
aI266
aI267
aI267
aI267
aI267
aI266
aI267
aI268
aI270
aI269
aI269
aI269
aI268
aI270
aI270
aI269
aI269
aI269
aI269
aI269
aI269
aI269
aI268
aI268
aI269
aI269
aI268
aI269
aI269
aI269
aI268
aI268
aI268
aI269
aI270
aI269
aI270
aI270
aI273
aI273
aI272
aI272
aI272
aI272
aI272
aI271
aI271
aI271
aI271
aI271
aI270
aI270
aI270
aI270
aI270
aI270
aI270
aI271
aI271
aI271
aI271
aI270
aI271
aI271
aI272
aI272
aI272
aI272
aI271
aI272
aI274
aI274
aI274
aI274
aI274
aI273
aI273
aI273
aI273
aI277
aI277
aI277
aI278
aI278
aI279
aI279
aI279
aI279
aI280
aI280
aI280
aI280
aI279
aI279
aI279
aI279
aI279
aI279
aI279
aI279
aI278
aI278
aI278
aI278
aI278
aI278
aI278
aI280
aI280
aI281
aI281
aI280
aI281
aI281
aI281
aI281
aI282
aI282
aI282
aI282
aI282
aI281
aI281
aI281
aI281
aI281
aI281
aI281
aI281
aI281
aI281
aI281
aI280
aI282
aI282
aI282
aI283
aI283
aI283
aI283
aI283
aI283
aI283
aI283
aI283
aI284
aI283
aI283
aI283
aI283
aI283
aI284
aI284
aI284
aI284
aI284
aI284
aI284
aI284
aI284
aI283
aI284
aI284
aI284
aI284
aI284
aI284
aI284
aI284
aI284
aI284
aI284
aI284
aI284
aI284
aI284
aI283
aI285
aI285
aI285
aI285
aI285
aI285
aI285
aI285
aI285
aI285
aI285
aI285
aI285
aI285
aI285
aI285
aI285
aI285
aI284
aI284
aI284
aI284
aI284
aI284
aI284
aI284
aI284
aI284
aI284
aI284
aI284
aI284
aI284
aI284
aI284
aI284
aI284
aI284
aI284
aI283
aI283
aI283
aI283
aI283
aI283
aI283
aI283
aI283
aI283
aI283
aI283
aI283
aI283
aI283
aI283
aI283
aI283
aI283
aI283
aI283
aI283
aI283
aI283
aI283
aI282
aI282
aI282
aI282
aI282
aI282
aI282
aI282
aI282
aI282
aI282
aI282
aI282
aI282
aI282
aI282
aI282
aI282
aI282
aI282
aI282
aI282
aI282
aI282
aI282
aI282
aI282
aI282
aI282
aI281
aI281
aI281
aI281
aI281
aI281
aI281
aI281
aI281
aI281
aI281
aI281
aI281
aI281
aI281
aI281
aI281
aI281
aI281
aI281
aI281
aI281
aI281
aI281
aI281
aI281
aI281
aI281
aI281
aI281
aI281
aI281
aI281
aI281
aI281
aI281
aI280
aI280
aI280
aI280
aI280
aI280
aI280
aI280
aI280
aI280
aI280
aI280
aI280
aI280
aI280
aI280
aI280
aI280
aI280
aI280
aI280
aI280
aI280
aI280
aI280
aI280
aI280
aI280
aI280
aI280
aI280
aI280
aI280
aI280
aI280
aI280
aI280
aI280
aI280
aI280
aI280
aI279
aI279
aI279
aI279
aI280
aI281
aI281
aI281
aI281
aI281
aI281
aI281
aI283
aI283
aI283
aI283
aI283
aI283
aI283
aI283
aI283
aI284
aI284
aI284
aI284
aI284
aI284
aI284
aI285
aI285
aI285
aI285
aI285
aI285
aI285
aI285
aI285
aI285
aI285
aI285
aI285
aI285
aI285
aI285
aI285
aI285
aI285
aI285
aI285
aI285
aI285
aI284
aI284
aI284
aI284
aI284
aI284
aI284
aI284
aI284
aI284
aI284
aI284
aI284
aI284
aI284
aI284
aI284
aI284
aI284
aI284
aI284
aI284
aI284
aI284
aI284
aI284
aI284
aI285
aI285
aI285
aI285
aI285
aI285
aI285
aI285
aI285
aI285
aI285
aI285
aI285
aI285
aI285
aI285
aI285
aI285
aI285
aI285
aI285
aI285
aI285
aI285
aI285
aI285
aI285
aI285
aI285
aI285
aI285
aI285
aI285
aI285
aI285
aI285
aI285
aI285
aI285
aI285
aI285
aI284
aI284
aI284
aI284
aI284
aI284
aI284
aI284
aI284
aI284
aI284
aI284
aI284
aI284
aI284
aI284
aI284
aI284
aI284
aI284
aI284
aI284
aI284
aI284
aI284
aI284
aI284
aI284
aI284
aI284
aI284
aI284
aI284
aI284
aI284
aI284
aI284
aI284
aI284
aI284
aI284
aI284
aI284
aI284
aI284
aI284
aI284
aI284
aI284
aI284
aI284
aI284
aI284
aI284
aI284
aI284
aI284
aI284
aI284
aI284
aI284
aI284
aI285
aI285
aI285
aI285
aI285
aI285
aI285
aI285
aI285
aI285
aI285
aI285
aI285
aI285
aI285
aI285
aI285
aI285
aI285
aI285
aI285
aI285
aI285
aI285
aI285
aI285
aI285
aI285
aI285
aI285
asg7
(lp13
I0
aI4
aI4
aI12
aI22
aI32
aI41
aI51
aI60
aI68
aI75
aI84
aI92
aI99
aI106
aI113
aI120
aI125
aI132
aI137
aI142
aI145
aI150
aI154
aI160
aI161
aI171
aI174
aI174
aI176
aI178
aI179
aI180
aI182
aI182
aI182
aI182
aI185
aI185
aI187
aI187
aI189
aI190
aI198
aI207
aI207
aI207
aI207
aI207
aI207
aI207
aI207
aI207
aI207
aI207
aI207
aI207
aI207
aI207
aI207
aI207
aI207
aI208
aI208
aI210
aI210
aI212
aI212
aI212
aI212
aI212
aI214
aI215
aI218
aI219
aI219
aI219
aI219
aI221
aI227
aI227
aI227
aI227
aI227
aI227
aI227
aI227
aI227
aI227
aI227
aI228
aI229
aI230
aI230
aI230
aI232
aI232
aI232
aI233
aI234
aI234
aI234
aI234
aI235
aI236
aI238
aI238
aI238
aI238
aI238
aI240
aI240
aI240
aI240
aI240
aI240
aI241
aI241
aI241
aI241
aI241
aI242
aI242
aI242
aI243
aI243
aI243
aI243
aI243
aI243
aI244
aI245
aI245
aI246
aI246
aI249
aI249
aI249
aI249
aI249
aI249
aI249
aI249
aI249
aI249
aI249
aI249
aI249
aI249
aI249
aI249
aI249
aI250
aI250
aI251
aI251
aI251
aI251
aI251
aI252
aI252
aI253
aI253
aI253
aI253
aI253
aI254
aI256
aI256
aI256
aI256
aI256
aI256
aI256
aI256
aI256
aI260
aI260
aI260
aI261
aI261
aI263
aI263
aI263
aI263
aI264
aI264
aI264
aI264
aI264
aI264
aI264
aI264
aI264
aI264
aI264
aI264
aI264
aI264
aI264
aI264
aI264
aI264
aI264
aI266
aI266
aI267
aI267
aI267
aI268
aI268
aI268
aI268
aI269
aI269
aI269
aI269
aI269
aI269
aI269
aI269
aI269
aI269
aI269
aI269
aI269
aI269
aI269
aI269
aI269
aI271
aI271
aI271
aI272
aI272
aI272
aI272
aI272
aI272
aI272
aI272
aI272
aI273
aI273
aI273
aI273
aI273
aI273
aI274
aI274
aI274
aI274
aI274
aI274
aI274
aI274
aI274
aI274
aI275
aI275
aI275
aI275
aI275
aI275
aI275
aI275
aI275
aI275
aI275
aI275
aI275
aI275
aI275
aI275
aI277
aI277
aI277
aI277
aI277
aI277
aI277
aI277
aI277
aI277
aI277
aI277
aI277
aI277
aI277
aI277
aI277
aI277
aI277
aI277
aI277
aI277
aI277
aI277
aI277
aI277
aI277
aI277
aI277
aI277
aI277
aI277
aI277
aI277
aI277
aI277
aI277
aI277
aI277
aI277
aI277
aI277
aI277
aI277
aI277
aI277
aI277
aI277
aI277
aI277
aI277
aI277
aI277
aI277
aI277
aI277
aI277
aI277
aI277
aI277
aI277
aI277
aI277
aI277
aI277
aI277
aI277
aI277
aI277
aI277
aI277
aI277
aI277
aI277
aI277
aI277
aI277
aI277
aI277
aI277
aI277
aI277
aI277
aI277
aI277
aI277
aI277
aI277
aI277
aI277
aI277
aI277
aI277
aI277
aI277
aI277
aI277
aI277
aI277
aI277
aI277
aI277
aI277
aI277
aI277
aI277
aI277
aI277
aI277
aI277
aI277
aI277
aI277
aI277
aI277
aI277
aI277
aI277
aI277
aI277
aI277
aI277
aI277
aI277
aI277
aI277
aI277
aI277
aI277
aI277
aI277
aI277
aI277
aI277
aI277
aI277
aI277
aI277
aI277
aI277
aI277
aI277
aI277
aI277
aI277
aI277
aI277
aI277
aI277
aI277
aI277
aI277
aI277
aI277
aI277
aI277
aI277
aI277
aI277
aI277
aI277
aI277
aI277
aI277
aI277
aI277
aI277
aI277
aI277
aI277
aI277
aI277
aI277
aI277
aI278
aI279
aI279
aI279
aI279
aI279
aI279
aI279
aI281
aI281
aI281
aI281
aI281
aI281
aI281
aI281
aI281
aI282
aI282
aI282
aI282
aI282
aI282
aI282
aI283
aI283
aI283
aI283
aI283
aI283
aI283
aI283
aI283
aI283
aI283
aI283
aI283
aI283
aI283
aI283
aI283
aI283
aI283
aI283
aI283
aI283
aI283
aI283
aI283
aI283
aI283
aI283
aI283
aI283
aI283
aI283
aI283
aI283
aI283
aI283
aI283
aI283
aI283
aI283
aI283
aI283
aI283
aI283
aI283
aI283
aI283
aI283
aI283
aI283
aI284
aI284
aI284
aI284
aI284
aI284
aI284
aI284
aI284
aI284
aI284
aI284
aI284
aI284
aI284
aI284
aI284
aI284
aI284
aI284
aI284
aI284
aI284
aI284
aI284
aI284
aI284
aI284
aI284
aI284
aI284
aI284
aI284
aI284
aI284
aI284
aI284
aI284
aI284
aI284
aI284
aI284
aI284
aI284
aI284
aI284
aI284
aI284
aI284
aI284
aI284
aI284
aI284
aI284
aI284
aI284
aI284
aI284
aI284
aI284
aI284
aI284
aI284
aI284
aI284
aI284
aI284
aI284
aI284
aI284
aI284
aI284
aI284
aI284
aI284
aI284
aI284
aI284
aI284
aI284
aI284
aI284
aI284
aI284
aI284
aI284
aI284
aI284
aI284
aI284
aI284
aI284
aI284
aI284
aI284
aI284
aI284
aI284
aI284
aI284
aI284
aI284
aI284
aI285
aI285
aI285
aI285
aI285
aI285
aI285
aI285
aI285
aI285
aI285
aI285
aI285
aI285
aI285
aI285
aI285
aI285
aI285
aI285
aI285
aI285
aI285
aI285
aI285
aI285
aI285
aI285
aI285
aI285
aI286
assS'true'
p14
(lp15
I286
aI7215
as.